Archive member included because of file (symbol)

/usr/local/bin/../lib/gcc/arm-elf/4.1.0/libgcc.a(_udivsi3.o)
                              ./uart/uart.o (__udivsi3)
/usr/local/bin/../lib/gcc/arm-elf/4.1.0/libgcc.a(_umodsi3.o)
                              ./mprintf/mprintf.o (__umodsi3)
/usr/local/bin/../lib/gcc/arm-elf/4.1.0/libgcc.a(_dvmd_tls.o)
                              /usr/local/bin/../lib/gcc/arm-elf/4.1.0/libgcc.a(_udivsi3.o) (__div0)
/usr/local/bin/../lib/gcc/arm-elf/4.1.0/libgcc.a(_addsub_df.o)
                              ./mprintf/mprintf.o (__subdf3)
/usr/local/bin/../lib/gcc/arm-elf/4.1.0/libgcc.a(_mul_df.o)
                              ./mprintf/mprintf.o (__muldf3)
/usr/local/bin/../lib/gcc/arm-elf/4.1.0/libgcc.a(_div_df.o)
                              ./mprintf/mprintf.o (__divdf3)
/usr/local/bin/../lib/gcc/arm-elf/4.1.0/libgcc.a(_ne_df.o)
                              ./mprintf/mprintf.o (__nedf2)
/usr/local/bin/../lib/gcc/arm-elf/4.1.0/libgcc.a(_gt_df.o)
                              ./mprintf/mprintf.o (__gtdf2)
/usr/local/bin/../lib/gcc/arm-elf/4.1.0/libgcc.a(_ge_df.o)
                              ./mprintf/mprintf.o (__gedf2)
/usr/local/bin/../lib/gcc/arm-elf/4.1.0/libgcc.a(_lt_df.o)
                              ./mprintf/mprintf.o (__ltdf2)
/usr/local/bin/../lib/gcc/arm-elf/4.1.0/libgcc.a(_si_to_df.o)
                              ./mprintf/mprintf.o (__floatsidf)
/usr/local/bin/../lib/gcc/arm-elf/4.1.0/libgcc.a(_df_to_si.o)
                              ./mprintf/mprintf.o (__fixdfsi)
/usr/local/bin/../lib/gcc/arm-elf/4.1.0/libgcc.a(_thenan_df.o)
                              /usr/local/bin/../lib/gcc/arm-elf/4.1.0/libgcc.a(_addsub_df.o) (__thenan_df)
/usr/local/bin/../lib/gcc/arm-elf/4.1.0/libgcc.a(_pack_df.o)
                              /usr/local/bin/../lib/gcc/arm-elf/4.1.0/libgcc.a(_addsub_df.o) (__pack_d)
/usr/local/bin/../lib/gcc/arm-elf/4.1.0/libgcc.a(_unpack_df.o)
                              /usr/local/bin/../lib/gcc/arm-elf/4.1.0/libgcc.a(_addsub_df.o) (__unpack_d)
/usr/local/bin/../lib/gcc/arm-elf/4.1.0/libgcc.a(_fpcmp_parts_df.o)
                              /usr/local/bin/../lib/gcc/arm-elf/4.1.0/libgcc.a(_ne_df.o) (__fpcmp_parts_d)
/usr/local/bin/../lib/gcc/arm-elf/4.1.0/../../../../arm-elf/lib/libg.a(errno.o)
                              syscalls.o (__errno)
/usr/local/bin/../lib/gcc/arm-elf/4.1.0/../../../../arm-elf/lib/libg.a(fflush.o)
                              main.o (fflush)
/usr/local/bin/../lib/gcc/arm-elf/4.1.0/../../../../arm-elf/lib/libg.a(findfp.o)
                              /usr/local/bin/../lib/gcc/arm-elf/4.1.0/../../../../arm-elf/lib/libg.a(fflush.o) (__sinit)
/usr/local/bin/../lib/gcc/arm-elf/4.1.0/../../../../arm-elf/lib/libg.a(fwalk.o)
                              /usr/local/bin/../lib/gcc/arm-elf/4.1.0/../../../../arm-elf/lib/libg.a(fflush.o) (_fwalk)
/usr/local/bin/../lib/gcc/arm-elf/4.1.0/../../../../arm-elf/lib/libg.a(impure.o)
                              main.o (_impure_ptr)
/usr/local/bin/../lib/gcc/arm-elf/4.1.0/../../../../arm-elf/lib/libg.a(mallocr.o)
                              /usr/local/bin/../lib/gcc/arm-elf/4.1.0/../../../../arm-elf/lib/libg.a(findfp.o) (_malloc_r)
/usr/local/bin/../lib/gcc/arm-elf/4.1.0/../../../../arm-elf/lib/libg.a(memcmp.o)
                              ./dhcp/dhcpc.o (memcmp)
/usr/local/bin/../lib/gcc/arm-elf/4.1.0/../../../../arm-elf/lib/libg.a(memcpy.o)
                              ./sft/sftd.o (memcpy)
/usr/local/bin/../lib/gcc/arm-elf/4.1.0/../../../../arm-elf/lib/libg.a(memset.o)
                              main.o (memset)
/usr/local/bin/../lib/gcc/arm-elf/4.1.0/../../../../arm-elf/lib/libg.a(mlock.o)
                              /usr/local/bin/../lib/gcc/arm-elf/4.1.0/../../../../arm-elf/lib/libg.a(mallocr.o) (__malloc_lock)
/usr/local/bin/../lib/gcc/arm-elf/4.1.0/../../../../arm-elf/lib/libg.a(printf.o)
                              ./dhcp/dhcpc.o (printf)
/usr/local/bin/../lib/gcc/arm-elf/4.1.0/../../../../arm-elf/lib/libg.a(putchar.o)
                              ./cli/cli.o (putchar)
/usr/local/bin/../lib/gcc/arm-elf/4.1.0/../../../../arm-elf/lib/libg.a(puts.o)
                              ./sft/sftd.o (puts)
/usr/local/bin/../lib/gcc/arm-elf/4.1.0/../../../../arm-elf/lib/libg.a(stdio.o)
                              /usr/local/bin/../lib/gcc/arm-elf/4.1.0/../../../../arm-elf/lib/libg.a(findfp.o) (__sclose)
/usr/local/bin/../lib/gcc/arm-elf/4.1.0/../../../../arm-elf/lib/libg.a(strcat.o)
                              ./cli/cli.o (strcat)
/usr/local/bin/../lib/gcc/arm-elf/4.1.0/../../../../arm-elf/lib/libg.a(strchr.o)
                              ./httpd/httpd.o (strchr)
/usr/local/bin/../lib/gcc/arm-elf/4.1.0/../../../../arm-elf/lib/libg.a(strcmp.o)
                              ./sockets/cli_webSock.o (strcmp)
/usr/local/bin/../lib/gcc/arm-elf/4.1.0/../../../../arm-elf/lib/libg.a(strcpy.o)
                              ./httpd/httpd.o (strcpy)
/usr/local/bin/../lib/gcc/arm-elf/4.1.0/../../../../arm-elf/lib/libg.a(strlen.o)
                              main.o (strlen)
/usr/local/bin/../lib/gcc/arm-elf/4.1.0/../../../../arm-elf/lib/libg.a(strncat.o)
                              ./cli/cli.o (strncat)
/usr/local/bin/../lib/gcc/arm-elf/4.1.0/../../../../arm-elf/lib/libg.a(strncmp.o)
                              ./httpd/httpd.o (strncmp)
/usr/local/bin/../lib/gcc/arm-elf/4.1.0/../../../../arm-elf/lib/libg.a(strncpy.o)
                              ./sft/sftd.o (strncpy)
/usr/local/bin/../lib/gcc/arm-elf/4.1.0/../../../../arm-elf/lib/libg.a(strrchr.o)
                              ./httpd/httpd.o (strrchr)
/usr/local/bin/../lib/gcc/arm-elf/4.1.0/../../../../arm-elf/lib/libg.a(strstr.o)
                              ./httpd/httpd-cgi.o (strstr)
/usr/local/bin/../lib/gcc/arm-elf/4.1.0/../../../../arm-elf/lib/libg.a(strtok.o)
                              ./sockets/cli_webSock.o (strtok)
/usr/local/bin/../lib/gcc/arm-elf/4.1.0/../../../../arm-elf/lib/libg.a(strtok_r.o)
                              /usr/local/bin/../lib/gcc/arm-elf/4.1.0/../../../../arm-elf/lib/libg.a(strtok.o) (__strtok_r)
/usr/local/bin/../lib/gcc/arm-elf/4.1.0/../../../../arm-elf/lib/libg.a(toupper.o)
                              ./cli/cli.o (toupper)
/usr/local/bin/../lib/gcc/arm-elf/4.1.0/../../../../arm-elf/lib/libg.a(vfprintf.o)
                              /usr/local/bin/../lib/gcc/arm-elf/4.1.0/../../../../arm-elf/lib/libg.a(printf.o) (_vfprintf_r)
/usr/local/bin/../lib/gcc/arm-elf/4.1.0/../../../../arm-elf/lib/libg.a(wbuf.o)
                              /usr/local/bin/../lib/gcc/arm-elf/4.1.0/../../../../arm-elf/lib/libg.a(putchar.o) (__swbuf)
/usr/local/bin/../lib/gcc/arm-elf/4.1.0/../../../../arm-elf/lib/libg.a(wcrtomb.o)
                              /usr/local/bin/../lib/gcc/arm-elf/4.1.0/../../../../arm-elf/lib/libg.a(vfprintf.o) (_wcrtomb_r)
/usr/local/bin/../lib/gcc/arm-elf/4.1.0/../../../../arm-elf/lib/libg.a(wcsrtombs.o)
                              /usr/local/bin/../lib/gcc/arm-elf/4.1.0/../../../../arm-elf/lib/libg.a(vfprintf.o) (_wcsrtombs_r)
/usr/local/bin/../lib/gcc/arm-elf/4.1.0/../../../../arm-elf/lib/libg.a(wctomb_r.o)
                              /usr/local/bin/../lib/gcc/arm-elf/4.1.0/../../../../arm-elf/lib/libg.a(wcrtomb.o) (_wctomb_r)
/usr/local/bin/../lib/gcc/arm-elf/4.1.0/../../../../arm-elf/lib/libg.a(wsetup.o)
                              /usr/local/bin/../lib/gcc/arm-elf/4.1.0/../../../../arm-elf/lib/libg.a(vfprintf.o) (__swsetup)
/usr/local/bin/../lib/gcc/arm-elf/4.1.0/../../../../arm-elf/lib/libg.a(ctype_.o)
                              /usr/local/bin/../lib/gcc/arm-elf/4.1.0/../../../../arm-elf/lib/libg.a(toupper.o) (__ctype_ptr)
/usr/local/bin/../lib/gcc/arm-elf/4.1.0/../../../../arm-elf/lib/libg.a(dtoa.o)
                              /usr/local/bin/../lib/gcc/arm-elf/4.1.0/../../../../arm-elf/lib/libg.a(vfprintf.o) (_dtoa_r)
/usr/local/bin/../lib/gcc/arm-elf/4.1.0/../../../../arm-elf/lib/libg.a(fclose.o)
                              /usr/local/bin/../lib/gcc/arm-elf/4.1.0/../../../../arm-elf/lib/libg.a(findfp.o) (fclose)
/usr/local/bin/../lib/gcc/arm-elf/4.1.0/../../../../arm-elf/lib/libg.a(freer.o)
                              /usr/local/bin/../lib/gcc/arm-elf/4.1.0/../../../../arm-elf/lib/libg.a(mallocr.o) (_free_r)
/usr/local/bin/../lib/gcc/arm-elf/4.1.0/../../../../arm-elf/lib/libg.a(fvwrite.o)
                              /usr/local/bin/../lib/gcc/arm-elf/4.1.0/../../../../arm-elf/lib/libg.a(puts.o) (__sfvwrite)
/usr/local/bin/../lib/gcc/arm-elf/4.1.0/../../../../arm-elf/lib/libg.a(locale.o)
                              /usr/local/bin/../lib/gcc/arm-elf/4.1.0/../../../../arm-elf/lib/libg.a(vfprintf.o) (localeconv)
/usr/local/bin/../lib/gcc/arm-elf/4.1.0/../../../../arm-elf/lib/libg.a(makebuf.o)
                              /usr/local/bin/../lib/gcc/arm-elf/4.1.0/../../../../arm-elf/lib/libg.a(wsetup.o) (__smakebuf)
/usr/local/bin/../lib/gcc/arm-elf/4.1.0/../../../../arm-elf/lib/libg.a(memchr.o)
                              /usr/local/bin/../lib/gcc/arm-elf/4.1.0/../../../../arm-elf/lib/libg.a(vfprintf.o) (memchr)
/usr/local/bin/../lib/gcc/arm-elf/4.1.0/../../../../arm-elf/lib/libg.a(memmove.o)
                              /usr/local/bin/../lib/gcc/arm-elf/4.1.0/../../../../arm-elf/lib/libg.a(fvwrite.o) (memmove)
/usr/local/bin/../lib/gcc/arm-elf/4.1.0/../../../../arm-elf/lib/libg.a(mprec.o)
                              /usr/local/bin/../lib/gcc/arm-elf/4.1.0/../../../../arm-elf/lib/libg.a(dtoa.o) (_Bfree)
/usr/local/bin/../lib/gcc/arm-elf/4.1.0/../../../../arm-elf/lib/libg.a(reallocr.o)
                              /usr/local/bin/../lib/gcc/arm-elf/4.1.0/../../../../arm-elf/lib/libg.a(fvwrite.o) (_realloc_r)
/usr/local/bin/../lib/gcc/arm-elf/4.1.0/../../../../arm-elf/lib/libg.a(s_isinf.o)
                              /usr/local/bin/../lib/gcc/arm-elf/4.1.0/../../../../arm-elf/lib/libg.a(vfprintf.o) (isinf)
/usr/local/bin/../lib/gcc/arm-elf/4.1.0/../../../../arm-elf/lib/libg.a(s_isnan.o)
                              /usr/local/bin/../lib/gcc/arm-elf/4.1.0/../../../../arm-elf/lib/libg.a(vfprintf.o) (isnan)
/usr/local/bin/../lib/gcc/arm-elf/4.1.0/../../../../arm-elf/lib/libg.a(syscalls.o)
                              /usr/local/bin/../lib/gcc/arm-elf/4.1.0/../../../../arm-elf/lib/libg.a(makebuf.o) (isatty)
/usr/local/bin/../lib/gcc/arm-elf/4.1.0/../../../../arm-elf/lib/libg.a(callocr.o)
                              /usr/local/bin/../lib/gcc/arm-elf/4.1.0/../../../../arm-elf/lib/libg.a(mprec.o) (_calloc_r)
/usr/local/bin/../lib/gcc/arm-elf/4.1.0/libgcc.a(_eq_df.o)
                              /usr/local/bin/../lib/gcc/arm-elf/4.1.0/../../../../arm-elf/lib/libg.a(vfprintf.o) (__eqdf2)

Allocating common symbols
Common symbol       size              file

uip_GAT0            0x2               main.o
arp_timer           0x8               ./eth/eth.o
uipIP_ADDR2         0x4               main.o
I2CReadLength       0x4               ./i2c/i2c.o
uip_GAT1            0x2               main.o
I2CSlaveBuffer      0x20              ./i2c/i2c.o
prot                0x28              main.o
uip_len             0x2               ../uip/uip.o
uipIP_ADDR3         0x4               main.o
uip_Mask1           0x2               main.o
cabec_dest          0x14              ./sockets/cli_webSock.o
uip_sappdata        0x4               ../uip/uip.o
uip_acc32           0x4               ../uip/uip.o
cabec_or            0x14              ./sockets/cli_webSock.o
setpoint            0x1               main.o
uip_flags           0x1               ../uip/uip.o
periodic_timer      0x8               ./eth/eth.o
ac_auto_on          0x1               main.o
ptxt                0x4               ./sft/grlib/grlib.o
contImg             0x4               ./sft/sftd.o
buff_temp           0xc               ./sft/sftd.o
temp1               0x1               main.o
uip_udp_conn        0x4               ../uip/uip.o
I2CMode             0x4               ./i2c/i2c.o
temp0               0x1               main.o
I2CMasterBuffer     0x20              ./i2c/i2c.o
I2CCmd              0x4               ./i2c/i2c.o
uip_Mask2           0x2               main.o
uipIP_ADDR1         0x4               main.o
n_buff              0x4               ./sft/sftd.o
uip_appdata         0x4               ../uip/uip.o
uip_conn            0x4               ../uip/uip.o
uip_conns           0x1540            ../uip/uip.o
break_geral         0x4               ./sft/sftd.o
localtime           0x20              main.o
uip_Mask0           0x2               main.o
uip_GAT2            0x2               main.o
flag_buff_temp      0x4               ./sft/sftd.o
ac_modo             0x1               main.o
I2CWriteLength      0x4               ./i2c/i2c.o
CHAT_PORT           0x4               main.o
uip_Mask3           0x2               main.o
gp_buf              0x4               ./mprintf/mprintf.o
uip_listenports     0x50              ../uip/uip.o
uip_draddr          0x4               ../uip/uip.o
uip_stat            0x38              ../uip/uip.o
vectorAddrIPv4      0x10              main.o
flag_sendu          0x4               ./sft/sftd.o
global_chat_flag    0x4               main.o
uip_GAT3            0x2               main.o
uip_netmask         0x4               ../uip/uip.o
uip_hostaddr        0x4               ../uip/uip.o
uip_buf             0x5de             ../uip/uip.o
uip_slen            0x2               ../uip/uip.o
buff_cmd            0x96              ./cli/cli.o
uip_udp_conns       0x2a8             ../uip/uip.o
uipIP_ADDR0         0x4               main.o

Memory Configuration

Name             Origin             Length             Attributes
flash            0x00000000         0x00080000
ram              0x40000000         0x00008000
usbram           0x7fd00000         0x00002000
ethram           0x7fe00000         0x00004000
*default*        0x00000000         0xffffffff

Linker script and memory map

LOAD main.o
LOAD syscalls.o
LOAD ./uart/uart.o
LOAD ./mprintf/mprintf.o
LOAD ./timer/timer.o
LOAD ./rtc/rtc.o
LOAD ./i2c/i2c.o
LOAD ./i2c/i2c_isr.o
LOAD ./mac/emac.o
LOAD ./mac/emac_isr.o
LOAD ./mult/mult_uip.o
LOAD ./sft/grlib/grlib.o
LOAD ./sft/sftd.o
LOAD ./dhcp/dhcpc.o
LOAD ./httpd/httpd.o
LOAD ./httpd/httpd-cgi.o
LOAD ./httpd/httpd-fs.o
LOAD ./httpd/http-strings.o
LOAD ./sockets/cli_webSock.o
LOAD ./eth/eth.o
LOAD ./lcd/lcd.o
LOAD ./cli/cli.o
LOAD ./cli/cli_func.o
LOAD ./cli/debug.o
LOAD ./telnetd/telnetd.o
LOAD ./memb/memb.o
LOAD ./telnetd/shell.o
LOAD ../uip/uip_arp.o
LOAD ../uip/psock.o
LOAD ../uip/timer.o
LOAD ../uip/uip.o
LOAD /tmp/ccuBG77g.o
START GROUP
LOAD /usr/local/bin/../lib/gcc/arm-elf/4.1.0/libgcc.a
LOAD /usr/local/bin/../lib/gcc/arm-elf/4.1.0/../../../../arm-elf/lib/libg.a
LOAD /usr/local/bin/../lib/gcc/arm-elf/4.1.0/../../../../arm-elf/lib/libc.a
END GROUP
                0x40007ffc                __stack_end__ = 0x40007ffc
                0x00000000                . = 0x0

startup         0x00000000       0x48
 *(.startup)
 .startup       0x00000000       0x48 /tmp/ccuBG77g.o

prog            0x00000048    0x14edc
 *(.text)
 .text          0x00000048      0x6d4 main.o
                0x00000088                PLLInit
                0x00000304                read_temp
                0x00000250                LCDbcd
                0x0000022c                SWI_Routine
                0x00000068                DesligaAC
                0x000002c4                DABT_Routine
                0x00000204                FIQ_Routine
                0x00000288                PABT_Routine
                0x000001e0                UNDF_Routine
                0x00000048                LigaAC
                0x000003cc                main
                0x00000154                GPIOInit
 .text          0x0000071c      0x108 syscalls.o
                0x0000072c                _isatty_r
                0x0000071c                _lseek_r
                0x00000734                _fstat_r
                0x0000075c                _sbrk_r
                0x000007c0                _read_r
                0x00000724                _close_r
                0x000007d8                _write_r
 .text          0x00000824      0x420 ./uart/uart.o
                0x00000a50                UARTWaitForByte
                0x00000824                UARTInit
                0x00000c10                UARTTransmitString
                0x00000b78                UARTTransmitByte
                0x00000afc                UARTReceiveByte
                0x000009d4                UARTIsDataReady
 .text          0x00000c44      0xe00 ./mprintf/mprintf.o
                0x00001174                va_printf
                0x00000f4c                dprint
                0x00001a18                mprintf
                0x00000d14                atod
                0x000019cc                sprintf
                0x000019b4                sputchar
                0x00000c94                atoi
                0x00000c44                u2str
 .text          0x00001a44      0x1b0 ./timer/timer.o
                0x00001ac8                delayMs
                0x00001a44                T0Init
                0x00001b5c                timeoutMs
                0x00001a90                T0Stop
                0x00001b10                delayUs
                0x00001ab8                T0Get
                0x00001bcc                delay_1us
                0x00001aa4                T0Start
 .text          0x00001bf4      0x1e4 ./rtc/rtc.o
                0x00001d38                RTCClearTime
                0x00001ce4                RTCSetAlarm
                0x00001c90                RTCSetTime
                0x00001c40                RTCStart
                0x00001dc8                RTCSetAlarmMask
                0x00001c78                RTC_CTCReset
                0x00001d78                RTCGetTime
                0x00001c60                RTCStop
                0x00001bf4                RTCInit
 .text          0x00001dd8      0x198 ./i2c/i2c.o
                0x00001f10                I2CEngine
                0x00001dd8                I2CStart
                0x00001e34                I2CStop
                0x00001e68                I2CInit
 .text          0x00001f70      0x438 ./i2c/i2c_isr.o
                0x00001f70                I2C0MasterHandler
 .text          0x000023a8      0x774 ./mac/emac.o
                0x000026fc                WriteFrame_EMAC
                0x000025e0                StartReadFrame
                0x00002528                ReadFrame_EMAC
                0x00002678                uiGetEMACRxData
                0x000023a8                write_PHY
                0x00002568                CopyFromFrame_EMAC
                0x000023ec                read_PHY
                0x00002628                EndReadFrame
                0x00002540                ReadFrameBE_EMAC
                0x000026f4                Rdy4Tx
                0x00002458                rx_descr_init
                0x000025b0                DummyReadFrame_EMAC
                0x00002714                CopyToFrame_EMAC
                0x000024c4                tx_descr_init
                0x0000274c                DoSend_EMAC
                0x00002798                Init_EMAC
                0x00002658                CheckFrameReceived
                0x000026c4                RequestSend
 .text          0x00002b1c       0x34 ./mac/emac_isr.o
                0x00002b1c                EMAC_ISR_Handler
 .text          0x00002b50       0xac ./mult/mult_uip.o
                0x00002bc0                services_init
                0x00002b50                services_appcall
 .text          0x00002bfc      0x580 ./sft/grlib/grlib.o
                0x00002c9c                lcd_nokia_init
                0x00002bfc                espera_ms
                0x00002c80                WrSPI
                0x00002c24                spiconfig
                0x00002db8                txtattrib
                0x00002fec                lcdgr_puts
                0x00003018                setPixel
                0x00002dc8                lcdgr_putchar
 .text          0x0000317c      0x9e8 ./sft/sftd.o
                0x0000317c                carrega_img
                0x00003b54                sftd_init
                0x00003a70                sft_closed
                0x0000370c                sft_trata
                0x000036f4                sft_senddata
                0x00003524                envia_msg
                0x0000348c                carrega_img_old
                0x00003aa0                sftd_appcall
                0x00003664                info_host_ans
 .text          0x00003b64      0x78c ./dhcp/dhcpc.o
                0x00003bb4                dhcpc_configured
                0x00004294                dhcpc_init
                0x00003e74                dhcpc_appcall
                0x00003b90                dhcpc_request
 .text          0x000042f0      0x960 ./httpd/httpd.o
                0x000042f0                httpd_init
                0x00004b3c                httpd_appcall
 .text          0x00004c50      0x374 ./httpd/httpd-cgi.o
                0x00004d5c                http_set_sec
                0x00004e54                cgiProcessFormInput
                0x00004da8                http_set_min
                0x00004dc0                http_set_hour
                0x00004ca8                httpd_cgi
                0x00004e0c                http_set_lcd
 .text          0x00004fc4      0x16c ./httpd/httpd-fs.o
                0x000050b4                httpd_fs_init
                0x00005034                httpd_fs_open
                0x000050d0                httpd_fs_count
 .text          0x00005130      0x300 ./sockets/cli_webSock.o
                0x00005130                chat_communication
                0x000053ec                chat_start
                0x00005370                chat_appcall
                0x000053c0                chat_init
 .text          0x00005430      0x34c ./eth/eth.o
                0x00005648                clock_start
                0x00005624                clock_init
                0x00005634                clock_reset
                0x00005654                ethernet_init
                0x00005490                ethernet_task
                0x00005430                set_eth_addr
                0x00005618                clock_time
 .text          0x0000577c      0x160 ./lcd/lcd.o
                0x0000589c                lcd_clr
                0x0000577c                lcd_putc
                0x00005878                lcd_goto
                0x000057bc                lcd_string
                0x000058ac                lcd_string_old
                0x00005828                init_lcd
                0x000057e8                lcd_command
 .text          0x000058dc      0x764 ./cli/cli.o
                0x00005e1c                CLI_Builder
                0x00005b48                set_IpDefault
                0x00005abc                set_MaskDefault
                0x00005b00                set_GatewayDefault
                0x00005a38                UARTTakeString
                0x00005bf8                ExecCommand
                0x00005c58                mount_token
                0x00005b7c                cmdExec
                0x00005920                UARTTakeStringAsync
 .text          0x00006040      0xa9c ./cli/cli_func.o
                0x00006238                do_configIp
                0x000069c0                do_init
                0x00006a90                show_lcd_time
                0x000061c4                do_MAC
                0x00006120                set_Mask
                0x00006510                do_gateway
                0x00006978                set_lcd_init
                0x00006040                set_IP
                0x00006184                do_ftp
                0x00006770                do_lcd
                0x00006724                writeDataLcd
                0x00006a24                do_chat
                0x000060bc                set_Gateway
                0x0000668c                get_IP
                0x000061a4                do_get_temperature
                0x00006714                out_data
                0x00006394                do_mask
                0x00006854                do_IP
 .text          0x00006adc      0x614 ./telnetd/telnetd.o
                0x000070c4                shell_prompt
                0x00007010                telnetd_init
                0x00006adc                shell_quit
                0x00007030                shell_output
                0x00006c40                telnetd_appcall
 .text          0x000070f0      0x124 ./memb/memb.o
                0x000070f0                memb_alloc
                0x00007160                memb_free
                0x000071e0                memb_init
 .text          0x00007214       0xc4 ./telnetd/shell.o
                0x00007268                shell_start
                0x000072b8                shell_init
                0x00007214                shell_input
 .text          0x000072d8      0x6f0 ../uip/uip_arp.o
                0x0000769c                uip_arp_out
                0x00007480                uip_arp_arpin
                0x000078ec                uip_arp_timer
                0x00007978                uip_arp_init
                0x00007614                uip_arp_ipin
 .text          0x000079c8      0x62c ../uip/psock.o
                0x00007ea4                psock_generator_send
                0x00007a78                psock_newdata
                0x00007a5c                psock_datalen
                0x00007f68                psock_send
                0x00007c78                psock_readbuf
                0x00007c40                psock_init
                0x00007ab4                psock_readto
 .text          0x00007ff4       0x64 ../uip/timer.o
                0x00008004                timer_expired
                0x00008040                timer_set
                0x0000802c                timer_restart
                0x00007ff4                timer_reset
 .text          0x00008058     0x1d5c ../uip/uip.o
                0x00008254                uip_unlisten
                0x00008068                uip_add32
                0x0000865c                uip_process
                0x000085c4                uip_ipchksum
                0x00009c9c                uip_udp_new
                0x000082c4                uip_listen
                0x000085b4                uip_tcpchksum
                0x000083a4                uip_connect
                0x000085f4                uip_chksum
                0x0000838c                htons
                0x000081a8                uip_init
                0x00008058                uip_setipid
                0x000085a4                uip_udpchksum
                0x00008618                uip_send
 .text          0x00009db4       0xc4 /tmp/ccuBG77g.o
                0x00009db4                start
                0x00009e5c                endless_loop
 .text          0x00009e78      0x110 /usr/local/bin/../lib/gcc/arm-elf/4.1.0/libgcc.a(_udivsi3.o)
                0x00009e78                __udivsi3
                0x00009e78                __aeabi_uidiv
                0x00009f70                __aeabi_uidivmod
 .text          0x00009f88       0xcc /usr/local/bin/../lib/gcc/arm-elf/4.1.0/libgcc.a(_umodsi3.o)
                0x00009f88                __umodsi3
 .text          0x0000a054        0x4 /usr/local/bin/../lib/gcc/arm-elf/4.1.0/libgcc.a(_dvmd_tls.o)
                0x0000a054                __aeabi_ldiv0
                0x0000a054                __div0
                0x0000a054                __aeabi_idiv0
 .text          0x0000a058      0x42c /usr/local/bin/../lib/gcc/arm-elf/4.1.0/libgcc.a(_addsub_df.o)
                0x0000a430                __adddf3
                0x0000a3d0                __subdf3
 .text          0x0000a484      0x390 /usr/local/bin/../lib/gcc/arm-elf/4.1.0/libgcc.a(_mul_df.o)
                0x0000a4cc                __muldf3
 .text          0x0000a814      0x258 /usr/local/bin/../lib/gcc/arm-elf/4.1.0/libgcc.a(_div_df.o)
                0x0000a85c                __divdf3
 .text          0x0000aa6c       0x88 /usr/local/bin/../lib/gcc/arm-elf/4.1.0/libgcc.a(_ne_df.o)
                0x0000aa80                __nedf2
 .text          0x0000aaf4       0x88 /usr/local/bin/../lib/gcc/arm-elf/4.1.0/libgcc.a(_gt_df.o)
                0x0000ab08                __gtdf2
 .text          0x0000ab7c       0x88 /usr/local/bin/../lib/gcc/arm-elf/4.1.0/libgcc.a(_ge_df.o)
                0x0000ab90                __gedf2
 .text          0x0000ac04       0x88 /usr/local/bin/../lib/gcc/arm-elf/4.1.0/libgcc.a(_lt_df.o)
                0x0000ac18                __ltdf2
 .text          0x0000ac8c       0xbc /usr/local/bin/../lib/gcc/arm-elf/4.1.0/libgcc.a(_si_to_df.o)
                0x0000ac8c                __floatsidf
 .text          0x0000ad48       0xf8 /usr/local/bin/../lib/gcc/arm-elf/4.1.0/libgcc.a(_df_to_si.o)
                0x0000ad84                __fixdfsi
 .text          0x0000ae40      0x330 /usr/local/bin/../lib/gcc/arm-elf/4.1.0/libgcc.a(_pack_df.o)
                0x0000ae7c                __pack_d
 .text          0x0000b170      0x124 /usr/local/bin/../lib/gcc/arm-elf/4.1.0/libgcc.a(_unpack_df.o)
                0x0000b170                __unpack_d
 .text          0x0000b294      0x180 /usr/local/bin/../lib/gcc/arm-elf/4.1.0/libgcc.a(_fpcmp_parts_df.o)
                0x0000b2d0                __fpcmp_parts_d
 .text          0x0000b414       0x10 /usr/local/bin/../lib/gcc/arm-elf/4.1.0/../../../../arm-elf/lib/libg.a(errno.o)
                0x0000b414                __errno
 .text          0x0000b424       0xe0 /usr/local/bin/../lib/gcc/arm-elf/4.1.0/../../../../arm-elf/lib/libg.a(fflush.o)
                0x0000b424                fflush
 .text          0x0000b504      0x27c /usr/local/bin/../lib/gcc/arm-elf/4.1.0/../../../../arm-elf/lib/libg.a(findfp.o)
                0x0000b570                __sinit
                0x0000b644                __sfmoreglue
                0x0000b634                _cleanup
                0x0000b628                _cleanup_r
                0x0000b610                __fp_lock_all
                0x0000b560                __sfp_lock_acquire
                0x0000b694                __sfp
                0x0000b56c                __sinit_lock_release
                0x0000b5f8                __fp_unlock_all
                0x0000b564                __sfp_lock_release
                0x0000b568                __sinit_lock_acquire
 .text          0x0000b780      0x10c /usr/local/bin/../lib/gcc/arm-elf/4.1.0/../../../../arm-elf/lib/libg.a(fwalk.o)
                0x0000b808                _fwalk
                0x0000b780                _fwalk_reent
 .text          0x0000b88c      0x770 /usr/local/bin/../lib/gcc/arm-elf/4.1.0/../../../../arm-elf/lib/libg.a(mallocr.o)
                0x0000b88c                _malloc_r
 .text          0x0000bffc       0x98 /usr/local/bin/../lib/gcc/arm-elf/4.1.0/../../../../arm-elf/lib/libg.a(memcmp.o)
                0x0000bffc                memcmp
 .text          0x0000c094       0xa0 /usr/local/bin/../lib/gcc/arm-elf/4.1.0/../../../../arm-elf/lib/libg.a(memcpy.o)
                0x0000c094                memcpy
 .text          0x0000c134       0x98 /usr/local/bin/../lib/gcc/arm-elf/4.1.0/../../../../arm-elf/lib/libg.a(memset.o)
                0x0000c134                memset
 .text          0x0000c1cc        0x8 /usr/local/bin/../lib/gcc/arm-elf/4.1.0/../../../../arm-elf/lib/libg.a(mlock.o)
                0x0000c1d0                __malloc_unlock
                0x0000c1cc                __malloc_lock
 .text          0x0000c1d4       0x74 /usr/local/bin/../lib/gcc/arm-elf/4.1.0/../../../../arm-elf/lib/libg.a(printf.o)
                0x0000c1d4                printf
                0x0000c214                _printf_r
 .text          0x0000c248       0xa4 /usr/local/bin/../lib/gcc/arm-elf/4.1.0/../../../../arm-elf/lib/libg.a(putchar.o)
                0x0000c2d8                putchar
                0x0000c248                _putchar_r
 .text          0x0000c2ec       0x80 /usr/local/bin/../lib/gcc/arm-elf/4.1.0/../../../../arm-elf/lib/libg.a(puts.o)
                0x0000c2ec                _puts_r
                0x0000c358                puts
 .text          0x0000c36c      0x100 /usr/local/bin/../lib/gcc/arm-elf/4.1.0/../../../../arm-elf/lib/libg.a(stdio.o)
                0x0000c380                __sseek
                0x0000c428                __sread
                0x0000c36c                __sclose
                0x0000c3c8                __swrite
 .text          0x0000c46c       0x94 /usr/local/bin/../lib/gcc/arm-elf/4.1.0/../../../../arm-elf/lib/libg.a(strcat.o)
                0x0000c46c                strcat
 .text          0x0000c500      0x10c /usr/local/bin/../lib/gcc/arm-elf/4.1.0/../../../../arm-elf/lib/libg.a(strchr.o)
                0x0000c500                strchr
 .text          0x0000c60c       0xd0 /usr/local/bin/../lib/gcc/arm-elf/4.1.0/../../../../arm-elf/lib/libg.a(strcmp.o)
                0x0000c60c                strcmp
 .text          0x0000c6dc       0x9c /usr/local/bin/../lib/gcc/arm-elf/4.1.0/../../../../arm-elf/lib/libg.a(strcpy.o)
                0x0000c6dc                strcpy
 .text          0x0000c778       0x90 /usr/local/bin/../lib/gcc/arm-elf/4.1.0/../../../../arm-elf/lib/libg.a(strlen.o)
                0x0000c778                strlen
 .text          0x0000c808       0xcc /usr/local/bin/../lib/gcc/arm-elf/4.1.0/../../../../arm-elf/lib/libg.a(strncat.o)
                0x0000c808                strncat
 .text          0x0000c8d4      0x14c /usr/local/bin/../lib/gcc/arm-elf/4.1.0/../../../../arm-elf/lib/libg.a(strncmp.o)
                0x0000c8d4                strncmp
 .text          0x0000ca20      0x114 /usr/local/bin/../lib/gcc/arm-elf/4.1.0/../../../../arm-elf/lib/libg.a(strncpy.o)
                0x0000ca20                strncpy
 .text          0x0000cb34       0x40 /usr/local/bin/../lib/gcc/arm-elf/4.1.0/../../../../arm-elf/lib/libg.a(strrchr.o)
                0x0000cb34                strrchr
 .text          0x0000cb74       0x54 /usr/local/bin/../lib/gcc/arm-elf/4.1.0/../../../../arm-elf/lib/libg.a(strstr.o)
                0x0000cb74                strstr
 .text          0x0000cbc8       0x18 /usr/local/bin/../lib/gcc/arm-elf/4.1.0/../../../../arm-elf/lib/libg.a(strtok.o)
                0x0000cbc8                strtok
 .text          0x0000cbe0       0xcc /usr/local/bin/../lib/gcc/arm-elf/4.1.0/../../../../arm-elf/lib/libg.a(strtok_r.o)
                0x0000cca4                strtok_r
                0x0000cbe0                __strtok_r
 .text          0x0000ccac       0x1c /usr/local/bin/../lib/gcc/arm-elf/4.1.0/../../../../arm-elf/lib/libg.a(toupper.o)
                0x0000ccac                toupper
 .text          0x0000ccc8     0x1f88 /usr/local/bin/../lib/gcc/arm-elf/4.1.0/../../../../arm-elf/lib/libg.a(vfprintf.o)
                0x0000cd08                _vfprintf_r
                0x0000ec24                vfprintf
 .text          0x0000ec50      0x104 /usr/local/bin/../lib/gcc/arm-elf/4.1.0/../../../../arm-elf/lib/libg.a(wbuf.o)
                0x0000ec50                __swbuf
 .text          0x0000ed54       0x80 /usr/local/bin/../lib/gcc/arm-elf/4.1.0/../../../../arm-elf/lib/libg.a(wcrtomb.o)
                0x0000ed54                _wcrtomb_r
                0x0000eda8                wcrtomb
 .text          0x0000edd4      0x178 /usr/local/bin/../lib/gcc/arm-elf/4.1.0/../../../../arm-elf/lib/libg.a(wcsrtombs.o)
                0x0000edd4                _wcsrtombs_r
                0x0000ef0c                wcsrtombs
 .text          0x0000ef4c      0x420 /usr/local/bin/../lib/gcc/arm-elf/4.1.0/../../../../arm-elf/lib/libg.a(wctomb_r.o)
                0x0000ef4c                _wctomb_r
 .text          0x0000f36c       0xfc /usr/local/bin/../lib/gcc/arm-elf/4.1.0/../../../../arm-elf/lib/libg.a(wsetup.o)
                0x0000f36c                __swsetup
 .text          0x0000f468     0x164c /usr/local/bin/../lib/gcc/arm-elf/4.1.0/../../../../arm-elf/lib/libg.a(dtoa.o)
                0x0000f66c                _dtoa_r
 .text          0x00010ab4      0x128 /usr/local/bin/../lib/gcc/arm-elf/4.1.0/../../../../arm-elf/lib/libg.a(fclose.o)
                0x00010ab4                _fclose_r
                0x00010bc8                fclose
 .text          0x00010bdc      0x39c /usr/local/bin/../lib/gcc/arm-elf/4.1.0/../../../../arm-elf/lib/libg.a(freer.o)
                0x00010cd8                _free_r
                0x00010bdc                _malloc_trim_r
 .text          0x00010f78      0x3f8 /usr/local/bin/../lib/gcc/arm-elf/4.1.0/../../../../arm-elf/lib/libg.a(fvwrite.o)
                0x00010f78                __sfvwrite
 .text          0x00011370       0xac /usr/local/bin/../lib/gcc/arm-elf/4.1.0/../../../../arm-elf/lib/libg.a(locale.o)
                0x0001139c                _setlocale_r
                0x00011370                __locale_charset
                0x00011380                _localeconv_r
                0x00011400                setlocale
                0x0001138c                localeconv
 .text          0x0001141c      0x154 /usr/local/bin/../lib/gcc/arm-elf/4.1.0/../../../../arm-elf/lib/libg.a(makebuf.o)
                0x0001141c                __smakebuf
 .text          0x00011570      0x104 /usr/local/bin/../lib/gcc/arm-elf/4.1.0/../../../../arm-elf/lib/libg.a(memchr.o)
                0x00011570                memchr
 .text          0x00011674       0xfc /usr/local/bin/../lib/gcc/arm-elf/4.1.0/../../../../arm-elf/lib/libg.a(memmove.o)
                0x00011674                memmove
 .text          0x00011770      0xbb0 /usr/local/bin/../lib/gcc/arm-elf/4.1.0/../../../../arm-elf/lib/libg.a(mprec.o)
                0x00011a64                _mprec_log10
                0x0001178c                _hi0bits
                0x00011ab0                _Balloc
                0x00011b48                _d2b
                0x00011ea4                _multiply
                0x000119ec                _ratio
                0x00012240                _s2b
                0x00012064                _i2b
                0x000117e4                _lo0bits
                0x00011878                __mcmp
                0x0001214c                _pow5mult
                0x000118d8                _ulp
                0x00011938                _b2d
                0x00012084                _multadd
                0x00011c7c                __mdiff
                0x00011db0                _lshift
                0x00011770                _Bfree
 .text          0x00012320      0x638 /usr/local/bin/../lib/gcc/arm-elf/4.1.0/../../../../arm-elf/lib/libg.a(reallocr.o)
                0x00012320                _realloc_r
 .text          0x00012958       0x3c /usr/local/bin/../lib/gcc/arm-elf/4.1.0/../../../../arm-elf/lib/libg.a(s_isinf.o)
                0x00012958                isinf
 .text          0x00012994       0x30 /usr/local/bin/../lib/gcc/arm-elf/4.1.0/../../../../arm-elf/lib/libg.a(s_isnan.o)
                0x00012994                isnan
 .text          0x000129c4      0x708 /usr/local/bin/../lib/gcc/arm-elf/4.1.0/../../../../arm-elf/lib/libg.a(syscalls.o)
                0x000129f4                _getpid
                0x00012b50                initialise_monitor_handles
                0x00012a10                isatty
                0x00012aa4                _fstat
                0x00012fa8                _open
                0x00012a50                _sbrk
                0x00012a0c                _raise
                0x00012c0c                _times
                0x00012fc8                _stat
                0x00013018                _lseek
                0x000129fc                _link
                0x00012d24                _swiwrite
                0x00012a18                _rename
                0x00012d60                _swilseek
                0x00012cd8                _swiclose
                0x00012e74                _swiopen
                0x00012a04                _unlink
                0x00012f1c                _write
                0x00012c90                _kill
                0x00012c48                _gettimeofday
                0x00013064                _read
                0x00012cb8                _exit
                0x00012a30                _system
                0x00013028                _swiread
                0x00012f98                _close
 .text          0x000130cc       0xa0 /usr/local/bin/../lib/gcc/arm-elf/4.1.0/../../../../arm-elf/lib/libg.a(callocr.o)
                0x000130cc                _calloc_r
 .text          0x0001316c       0x88 /usr/local/bin/../lib/gcc/arm-elf/4.1.0/libgcc.a(_eq_df.o)
                0x00013180                __eqdf2
 *(.rodata)
 .rodata        0x000131f4      0x300 ./sft/grlib/grlib.o
 .rodata        0x000134f4        0x8 ./dhcp/dhcpc.o
 .rodata        0x000134fc       0x4c ./httpd/httpd-cgi.o
 .rodata        0x00013548      0xac0 ./httpd/httpd-fs.o
                0x00013548                file_index_html
                0x0001355c                file_404_html
                0x00013570                file_tcc_shtml
 .rodata        0x00014008      0x24a ./httpd/http-strings.o
                0x00014228                http_shtml
                0x00014008                http_http
                0x00014024                http_10
                0x000141a2                http_content_type_png
                0x0001416b                http_content_type_css
                0x0001407a                http_referer
                0x000140d7                http_header_404
                0x00014015                http_301
                0x00014132                http_content_type_plain
                0x00014248                http_text
                0x0001414f                http_content_type_html
                0x00014045                http_texthtml
                0x0001405a                http_host
                0x000141be                http_content_type_gif
                0x00014061                http_crnl
                0x0001401f                http_get
                0x0001404f                http_location
                0x00014243                http_jpg
                0x00014234                http_css
                0x0001402d                http_11
                0x00014186                http_content_type_text
                0x0001401a                http_302
                0x00014036                http_content_type
                0x00014083                http_header_200
                0x0001424d                http_txt
                0x000141da                http_content_type_jpg
                0x00014222                http_html
                0x00014064                http_index_html
                0x00014239                http_png
                0x00014010                http_200
                0x00014070                http_404_html
                0x0001423e                http_gif
                0x000141f7                http_content_type_binary
                0x0001422f                http_htm
 *fill*         0x00014252        0x2 00
 .rodata        0x00014254      0x124 ./cli/cli.o
                0x000142f0                api_cli
 .rodata        0x00014378       0xa0 ./cli/cli_func.o
                0x00014378                MSG
 .rodata        0x00014418        0x6 ../uip/uip_arp.o
 *fill*         0x0001441e        0x2 00
 .rodata        0x00014420       0x14 /usr/local/bin/../lib/gcc/arm-elf/4.1.0/libgcc.a(_thenan_df.o)
                0x00014420                __thenan_df
 .rodata        0x00014434        0x4 /usr/local/bin/../lib/gcc/arm-elf/4.1.0/../../../../arm-elf/lib/libg.a(impure.o)
                0x00014434                _global_impure_ptr
 .rodata        0x00014438       0x20 /usr/local/bin/../lib/gcc/arm-elf/4.1.0/../../../../arm-elf/lib/libg.a(vfprintf.o)
 .rodata        0x00014458      0x101 /usr/local/bin/../lib/gcc/arm-elf/4.1.0/../../../../arm-elf/lib/libg.a(ctype_.o)
                0x00014458                _ctype_
 *fill*         0x00014559        0x3 00
 .rodata        0x0001455c       0x34 /usr/local/bin/../lib/gcc/arm-elf/4.1.0/../../../../arm-elf/lib/libg.a(locale.o)
 .rodata        0x00014590      0x124 /usr/local/bin/../lib/gcc/arm-elf/4.1.0/../../../../arm-elf/lib/libg.a(mprec.o)
                0x00014680                __mprec_tinytens
                0x00014590                __mprec_tens
                0x00014658                __mprec_bigtens
 *(.rodata*)
 .rodata.str1.4
                0x000146b4      0x111 main.o
                                0x114 (size before relaxing)
 *fill*         0x000147c5        0x3 00
 .rodata.str1.4
                0x000147c8        0xf syscalls.o
                                 0x10 (size before relaxing)
 *fill*         0x000147d7        0x1 00
 .rodata.str1.4
                0x000147d8       0x52 ./mac/emac.o
                                 0x54 (size before relaxing)
 *fill*         0x0001482a        0x2 00
 .rodata.str1.4
                0x0001482c       0x8a ./sft/sftd.o
                                 0x94 (size before relaxing)
 *fill*         0x000148b6        0x2 00
 .rodata.str1.4
                0x000148b8       0x92 ./dhcp/dhcpc.o
                                 0x94 (size before relaxing)
 *fill*         0x0001494a        0x2 00
 .rodata.str1.4
                0x0001494c       0x8d ./httpd/httpd-cgi.o
                                 0x94 (size before relaxing)
 *fill*         0x000149d9        0x3 00
 .rodata.str1.4
                0x000149dc       0x2a ./sockets/cli_webSock.o
                                 0x3c (size before relaxing)
 *fill*         0x00014a06        0x2 00
 .rodata.str1.4
                0x00014a08      0x246 ./cli/cli.o
                                0x250 (size before relaxing)
 *fill*         0x00014c4e        0x2 00
 .rodata.str1.4
                0x00014c50      0x1d8 ./cli/cli_func.o
 .rodata.str1.4
                0x00014e28       0x2f ./telnetd/shell.o
                                 0x4c (size before relaxing)
 *fill*         0x00014e57        0x1 00
 .rodata.str1.4
                0x00014e58       0x13 ../uip/psock.o
                                 0x14 (size before relaxing)
 *fill*         0x00014e6b        0x1 00
 .rodata.str1.4
                0x00014e6c       0x17 ../uip/uip.o
                                 0x18 (size before relaxing)
 *fill*         0x00014e83        0x1 00
 .rodata.str1.4
                0x00014e84        0x2 /usr/local/bin/../lib/gcc/arm-elf/4.1.0/../../../../arm-elf/lib/libg.a(impure.o)
                                  0x4 (size before relaxing)
 .rodata.str1.4
                0x00014e86        0x0 /usr/local/bin/../lib/gcc/arm-elf/4.1.0/../../../../arm-elf/lib/libg.a(puts.o)
                                  0x4 (size before relaxing)
 *fill*         0x00014e86        0x2 00
 .rodata.str1.4
                0x00014e88       0x5b /usr/local/bin/../lib/gcc/arm-elf/4.1.0/../../../../arm-elf/lib/libg.a(vfprintf.o)
                                 0x64 (size before relaxing)
 *fill*         0x00014ee3        0x1 00
 .rodata.str1.4
                0x00014ee4       0x1e /usr/local/bin/../lib/gcc/arm-elf/4.1.0/../../../../arm-elf/lib/libg.a(wctomb_r.o)
                                 0x20 (size before relaxing)
 *fill*         0x00014f02        0x2 00
 .rodata.str1.4
                0x00014f04       0x10 /usr/local/bin/../lib/gcc/arm-elf/4.1.0/../../../../arm-elf/lib/libg.a(dtoa.o)
                                 0x14 (size before relaxing)
 .rodata.str1.4
                0x00014f14        0xb /usr/local/bin/../lib/gcc/arm-elf/4.1.0/../../../../arm-elf/lib/libg.a(locale.o)
                                 0x18 (size before relaxing)
 *fill*         0x00014f1f        0x1 00
 .rodata.str1.4
                0x00014f20        0x4 /usr/local/bin/../lib/gcc/arm-elf/4.1.0/../../../../arm-elf/lib/libg.a(syscalls.o)
 *(.glue_7)
 *(.glue_7t)
                0x00014f24                __end_of_text__ = .

.data           0x40000000      0x83c load address 0x00014f24
                0x40000000                __data_beg__ = .
                0x00014f24                __data_beg_src__ = __end_of_text__
 *(.data)
 .data          0x40000000        0x8 ./httpd/httpd-cgi.o
 .data          0x40000008        0xc ./telnetd/telnetd.o
 .data          0x40000014      0x404 /usr/local/bin/../lib/gcc/arm-elf/4.1.0/../../../../arm-elf/lib/libg.a(impure.o)
                0x40000014                _impure_ptr
 .data          0x40000418      0x410 /usr/local/bin/../lib/gcc/arm-elf/4.1.0/../../../../arm-elf/lib/libg.a(mallocr.o)
                0x40000824                __malloc_sbrk_base
                0x40000418                __malloc_av_
                0x40000820                __malloc_trim_threshold
 .data          0x40000828        0x4 /usr/local/bin/../lib/gcc/arm-elf/4.1.0/../../../../arm-elf/lib/libg.a(ctype_.o)
                0x40000828                __ctype_ptr
 .data          0x4000082c       0x10 /usr/local/bin/../lib/gcc/arm-elf/4.1.0/../../../../arm-elf/lib/libg.a(locale.o)
                0x4000082c                __mb_cur_max
                0x40000830                __lc_ctype
                0x4000083c                __data_end__ = .

.bss            0x4000083c     0x2e6c
                0x4000083c                __bss_beg__ = .
 *(.bss)
 .bss           0x4000083c        0x4 syscalls.o
 .bss           0x40000840        0x4 ./rtc/rtc.o
                0x40000840                alarm_on
 .bss           0x40000844       0x14 ./i2c/i2c.o
                0x40000850                RdIndex
                0x40000844                I2CMasterState
                0x40000848                I2CSlaveState
                0x4000084c                I2CCount
                0x40000854                WrIndex
 .bss           0x40000858        0x8 ./mac/emac.o
 .bss           0x40000860        0x4 ./sft/sftd.o
 .bss           0x40000864       0x38 ./dhcp/dhcpc.o
 .bss           0x4000089c        0x6 ./httpd/httpd-fs.o
 *fill*         0x400008a2        0x2 00
 .bss           0x400008a4      0x928 ./cli/cli.o
                0x400008a4                buff_cmd_counter
 .bss           0x400011cc      0x320 ./telnetd/telnetd.o
 .bss           0x400014ec       0x68 ../uip/uip_arp.o
 .bss           0x40001554       0x12 ../uip/uip.o
                0x40001554                uip_ethaddr
 *fill*         0x40001566        0x2 00
 .bss           0x40001568       0x34 /usr/local/bin/../lib/gcc/arm-elf/4.1.0/../../../../arm-elf/lib/libg.a(mallocr.o)
                0x40001568                __malloc_top_pad
                0x4000156c                __malloc_max_sbrked_mem
                0x40001574                __malloc_current_mallinfo
                0x40001570                __malloc_max_total_mem
 .bss           0x4000159c        0xc /usr/local/bin/../lib/gcc/arm-elf/4.1.0/../../../../arm-elf/lib/libg.a(locale.o)
                0x4000159c                __nlocale_changed
                0x400015a0                __mlocale_changed
                0x400015a4                _PathLocale
 .bss           0x400015a8       0xb0 /usr/local/bin/../lib/gcc/arm-elf/4.1.0/../../../../arm-elf/lib/libg.a(syscalls.o)
 COMMON         0x40001658       0x90 main.o
                0x40001658                uip_GAT0
                0x4000165c                uipIP_ADDR2
                0x40001660                uip_GAT1
                0x40001664                prot
                0x4000168c                uipIP_ADDR3
                0x40001690                uip_Mask1
                0x40001692                setpoint
                0x40001693                ac_auto_on
                0x40001694                temp1
                0x40001695                temp0
                0x40001696                uip_Mask2
                0x40001698                uipIP_ADDR1
                0x4000169c                localtime
                0x400016bc                uip_Mask0
                0x400016be                uip_GAT2
                0x400016c0                ac_modo
                0x400016c4                CHAT_PORT
                0x400016c8                uip_Mask3
                0x400016cc                vectorAddrIPv4
                0x400016dc                global_chat_flag
                0x400016e0                uip_GAT3
                0x400016e4                uipIP_ADDR0
 COMMON         0x400016e8        0x4 ./mprintf/mprintf.o
                0x400016e8                gp_buf
 COMMON         0x400016ec       0x50 ./i2c/i2c.o
                0x400016ec                I2CReadLength
                0x400016f0                I2CSlaveBuffer
                0x40001710                I2CMode
                0x40001714                I2CMasterBuffer
                0x40001734                I2CCmd
                0x40001738                I2CWriteLength
 COMMON         0x4000173c        0x4 ./sft/grlib/grlib.o
                0x4000173c                ptxt
 COMMON         0x40001740       0x20 ./sft/sftd.o
                0x40001740                contImg
                0x40001744                buff_temp
                0x40001750                n_buff
                0x40001754                break_geral
                0x40001758                flag_buff_temp
                0x4000175c                flag_sendu
 COMMON         0x40001760       0x28 ./sockets/cli_webSock.o
                0x40001760                cabec_dest
                0x40001774                cabec_or
 COMMON         0x40001788       0x10 ./eth/eth.o
                0x40001788                arp_timer
                0x40001790                periodic_timer
 COMMON         0x40001798       0x96 ./cli/cli.o
                0x40001798                buff_cmd
 *fill*         0x4000182e        0x2 00
 COMMON         0x40001830     0x1e78 ../uip/uip.o
                0x40001830                uip_len
                0x40001834                uip_sappdata
                0x40001838                uip_acc32
                0x4000183c                uip_flags
                0x40001840                uip_udp_conn
                0x40001844                uip_appdata
                0x40001848                uip_conn
                0x4000184c                uip_conns
                0x40002d8c                uip_listenports
                0x40002ddc                uip_draddr
                0x40002de0                uip_stat
                0x40002e18                uip_netmask
                0x40002e1c                uip_hostaddr
                0x40002e20                uip_buf
                0x400033fe                uip_slen
                0x40003400                uip_udp_conns
                0x400036a8                . = ALIGN (0x4)
                0x400036a8                _bss_end__ = .
                0x400036a8                __bss_end__ = .
                0x400036a8                __end__ = .
                0x400036a8                . = ALIGN (0x4)
                0x400036a8                _end = .
                0x400036a8                PROVIDE (end, .)
OUTPUT(SELivre-eth-multServ.elf elf32-littlearm)

.debug_abbrev   0x00000000     0x8419
 .debug_abbrev  0x00000000      0x2e8 main.o
 .debug_abbrev  0x000002e8      0x1f5 syscalls.o
 .debug_abbrev  0x000004dd       0xc7 ./uart/uart.o
 .debug_abbrev  0x000005a4      0x161 ./mprintf/mprintf.o
 .debug_abbrev  0x00000705       0xe2 ./timer/timer.o
 .debug_abbrev  0x000007e7       0xeb ./rtc/rtc.o
 .debug_abbrev  0x000008d2       0xc8 ./i2c/i2c.o
 .debug_abbrev  0x0000099a       0x78 ./i2c/i2c_isr.o
 .debug_abbrev  0x00000a12      0x201 ./mac/emac.o
 .debug_abbrev  0x00000c13       0x29 ./mac/emac_isr.o
 .debug_abbrev  0x00000c3c      0x16e ./mult/mult_uip.o
 .debug_abbrev  0x00000daa      0x11e ./sft/grlib/grlib.o
 .debug_abbrev  0x00000ec8      0x2a0 ./sft/sftd.o
 .debug_abbrev  0x00001168      0x2bc ./dhcp/dhcpc.o
 .debug_abbrev  0x00001424      0x2b6 ./httpd/httpd.o
 .debug_abbrev  0x000016da      0x1c9 ./httpd/httpd-cgi.o
 .debug_abbrev  0x000018a3      0x179 ./httpd/httpd-fs.o
 .debug_abbrev  0x00001a1c       0x49 ./httpd/http-strings.o
 .debug_abbrev  0x00001a65      0x238 ./sockets/cli_webSock.o
 .debug_abbrev  0x00001c9d      0x1c6 ./eth/eth.o
 .debug_abbrev  0x00001e63       0xa1 ./lcd/lcd.o
 .debug_abbrev  0x00001f04      0x256 ./cli/cli.o
 .debug_abbrev  0x0000215a      0x258 ./cli/cli_func.o
 .debug_abbrev  0x000023b2       0x2a ./cli/debug.o
 .debug_abbrev  0x000023dc      0x27d ./telnetd/telnetd.o
 .debug_abbrev  0x00002659       0xc2 ./memb/memb.o
 .debug_abbrev  0x0000271b      0x114 ./telnetd/shell.o
 .debug_abbrev  0x0000282f      0x1d0 ../uip/uip_arp.o
 .debug_abbrev  0x000029ff      0x2ff ../uip/psock.o
 .debug_abbrev  0x00002cfe       0xe7 ../uip/timer.o
 .debug_abbrev  0x00002de5      0x2d3 ../uip/uip.o
 .debug_abbrev  0x000030b8       0x10 /tmp/ccuBG77g.o
 .debug_abbrev  0x000030c8       0x14 /usr/local/bin/../lib/gcc/arm-elf/4.1.0/libgcc.a(_udivsi3.o)
 .debug_abbrev  0x000030dc       0x14 /usr/local/bin/../lib/gcc/arm-elf/4.1.0/libgcc.a(_umodsi3.o)
 .debug_abbrev  0x000030f0       0x14 /usr/local/bin/../lib/gcc/arm-elf/4.1.0/libgcc.a(_dvmd_tls.o)
 .debug_abbrev  0x00003104      0x1b5 /usr/local/bin/../lib/gcc/arm-elf/4.1.0/libgcc.a(_addsub_df.o)
 .debug_abbrev  0x000032b9      0x1e7 /usr/local/bin/../lib/gcc/arm-elf/4.1.0/libgcc.a(_mul_df.o)
 .debug_abbrev  0x000034a0      0x1db /usr/local/bin/../lib/gcc/arm-elf/4.1.0/libgcc.a(_div_df.o)
 .debug_abbrev  0x0000367b      0x157 /usr/local/bin/../lib/gcc/arm-elf/4.1.0/libgcc.a(_ne_df.o)
 .debug_abbrev  0x000037d2      0x157 /usr/local/bin/../lib/gcc/arm-elf/4.1.0/libgcc.a(_gt_df.o)
 .debug_abbrev  0x00003929      0x157 /usr/local/bin/../lib/gcc/arm-elf/4.1.0/libgcc.a(_ge_df.o)
 .debug_abbrev  0x00003a80      0x157 /usr/local/bin/../lib/gcc/arm-elf/4.1.0/libgcc.a(_lt_df.o)
 .debug_abbrev  0x00003bd7       0xf1 /usr/local/bin/../lib/gcc/arm-elf/4.1.0/libgcc.a(_si_to_df.o)
 .debug_abbrev  0x00003cc8      0x166 /usr/local/bin/../lib/gcc/arm-elf/4.1.0/libgcc.a(_df_to_si.o)
 .debug_abbrev  0x00003e2e       0xba /usr/local/bin/../lib/gcc/arm-elf/4.1.0/libgcc.a(_thenan_df.o)
 .debug_abbrev  0x00003ee8      0x192 /usr/local/bin/../lib/gcc/arm-elf/4.1.0/libgcc.a(_pack_df.o)
 .debug_abbrev  0x0000407a      0x149 /usr/local/bin/../lib/gcc/arm-elf/4.1.0/libgcc.a(_unpack_df.o)
 .debug_abbrev  0x000041c3      0x111 /usr/local/bin/../lib/gcc/arm-elf/4.1.0/libgcc.a(_fpcmp_parts_df.o)
 .debug_abbrev  0x000042d4      0x15f /usr/local/bin/../lib/gcc/arm-elf/4.1.0/../../../../arm-elf/lib/libg.a(errno.o)
 .debug_abbrev  0x00004433      0x17f /usr/local/bin/../lib/gcc/arm-elf/4.1.0/../../../../arm-elf/lib/libg.a(fflush.o)
 .debug_abbrev  0x000045b2      0x24c /usr/local/bin/../lib/gcc/arm-elf/4.1.0/../../../../arm-elf/lib/libg.a(findfp.o)
 .debug_abbrev  0x000047fe      0x1ee /usr/local/bin/../lib/gcc/arm-elf/4.1.0/../../../../arm-elf/lib/libg.a(fwalk.o)
 .debug_abbrev  0x000049ec      0x157 /usr/local/bin/../lib/gcc/arm-elf/4.1.0/../../../../arm-elf/lib/libg.a(impure.o)
 .debug_abbrev  0x00004b43      0x225 /usr/local/bin/../lib/gcc/arm-elf/4.1.0/../../../../arm-elf/lib/libg.a(mallocr.o)
 .debug_abbrev  0x00004d68       0x7c /usr/local/bin/../lib/gcc/arm-elf/4.1.0/../../../../arm-elf/lib/libg.a(memcmp.o)
 .debug_abbrev  0x00004de4       0xa6 /usr/local/bin/../lib/gcc/arm-elf/4.1.0/../../../../arm-elf/lib/libg.a(memcpy.o)
 .debug_abbrev  0x00004e8a       0xa9 /usr/local/bin/../lib/gcc/arm-elf/4.1.0/../../../../arm-elf/lib/libg.a(memset.o)
 .debug_abbrev  0x00004f33      0x16a /usr/local/bin/../lib/gcc/arm-elf/4.1.0/../../../../arm-elf/lib/libg.a(mlock.o)
 .debug_abbrev  0x0000509d      0x1a0 /usr/local/bin/../lib/gcc/arm-elf/4.1.0/../../../../arm-elf/lib/libg.a(printf.o)
 .debug_abbrev  0x0000523d      0x189 /usr/local/bin/../lib/gcc/arm-elf/4.1.0/../../../../arm-elf/lib/libg.a(putchar.o)
 .debug_abbrev  0x000053c6      0x1ac /usr/local/bin/../lib/gcc/arm-elf/4.1.0/../../../../arm-elf/lib/libg.a(puts.o)
 .debug_abbrev  0x00005572      0x1b4 /usr/local/bin/../lib/gcc/arm-elf/4.1.0/../../../../arm-elf/lib/libg.a(stdio.o)
 .debug_abbrev  0x00005726       0x87 /usr/local/bin/../lib/gcc/arm-elf/4.1.0/../../../../arm-elf/lib/libg.a(strcat.o)
 .debug_abbrev  0x000057ad       0x9e /usr/local/bin/../lib/gcc/arm-elf/4.1.0/../../../../arm-elf/lib/libg.a(strchr.o)
 .debug_abbrev  0x0000584b       0x71 /usr/local/bin/../lib/gcc/arm-elf/4.1.0/../../../../arm-elf/lib/libg.a(strcmp.o)
 .debug_abbrev  0x000058bc       0xad /usr/local/bin/../lib/gcc/arm-elf/4.1.0/../../../../arm-elf/lib/libg.a(strcpy.o)
 .debug_abbrev  0x00005969       0x8b /usr/local/bin/../lib/gcc/arm-elf/4.1.0/../../../../arm-elf/lib/libg.a(strlen.o)
 .debug_abbrev  0x000059f4       0xa3 /usr/local/bin/../lib/gcc/arm-elf/4.1.0/../../../../arm-elf/lib/libg.a(strncat.o)
 .debug_abbrev  0x00005a97       0x7e /usr/local/bin/../lib/gcc/arm-elf/4.1.0/../../../../arm-elf/lib/libg.a(strncmp.o)
 .debug_abbrev  0x00005b15       0x8d /usr/local/bin/../lib/gcc/arm-elf/4.1.0/../../../../arm-elf/lib/libg.a(strncpy.o)
 .debug_abbrev  0x00005ba2       0x6f /usr/local/bin/../lib/gcc/arm-elf/4.1.0/../../../../arm-elf/lib/libg.a(strrchr.o)
 .debug_abbrev  0x00005c11       0x94 /usr/local/bin/../lib/gcc/arm-elf/4.1.0/../../../../arm-elf/lib/libg.a(strstr.o)
 .debug_abbrev  0x00005ca5      0x17f /usr/local/bin/../lib/gcc/arm-elf/4.1.0/../../../../arm-elf/lib/libg.a(strtok.o)
 .debug_abbrev  0x00005e24       0xbc /usr/local/bin/../lib/gcc/arm-elf/4.1.0/../../../../arm-elf/lib/libg.a(strtok_r.o)
 .debug_abbrev  0x00005ee0       0x73 /usr/local/bin/../lib/gcc/arm-elf/4.1.0/../../../../arm-elf/lib/libg.a(toupper.o)
 .debug_abbrev  0x00005f53      0x367 /usr/local/bin/../lib/gcc/arm-elf/4.1.0/../../../../arm-elf/lib/libg.a(vfprintf.o)
 .debug_abbrev  0x000062ba      0x17f /usr/local/bin/../lib/gcc/arm-elf/4.1.0/../../../../arm-elf/lib/libg.a(wbuf.o)
 .debug_abbrev  0x00006439      0x18e /usr/local/bin/../lib/gcc/arm-elf/4.1.0/../../../../arm-elf/lib/libg.a(wcrtomb.o)
 .debug_abbrev  0x000065c7      0x1a4 /usr/local/bin/../lib/gcc/arm-elf/4.1.0/../../../../arm-elf/lib/libg.a(wcsrtombs.o)
 .debug_abbrev  0x0000676b      0x1ab /usr/local/bin/../lib/gcc/arm-elf/4.1.0/../../../../arm-elf/lib/libg.a(wctomb_r.o)
 .debug_abbrev  0x00006916      0x170 /usr/local/bin/../lib/gcc/arm-elf/4.1.0/../../../../arm-elf/lib/libg.a(wsetup.o)
 .debug_abbrev  0x00006a86       0x52 /usr/local/bin/../lib/gcc/arm-elf/4.1.0/../../../../arm-elf/lib/libg.a(ctype_.o)
 .debug_abbrev  0x00006ad8      0x223 /usr/local/bin/../lib/gcc/arm-elf/4.1.0/../../../../arm-elf/lib/libg.a(dtoa.o)
 .debug_abbrev  0x00006cfb      0x1a7 /usr/local/bin/../lib/gcc/arm-elf/4.1.0/../../../../arm-elf/lib/libg.a(fclose.o)
 .debug_abbrev  0x00006ea2      0x1e8 /usr/local/bin/../lib/gcc/arm-elf/4.1.0/../../../../arm-elf/lib/libg.a(freer.o)
 .debug_abbrev  0x0000708a      0x1b4 /usr/local/bin/../lib/gcc/arm-elf/4.1.0/../../../../arm-elf/lib/libg.a(fvwrite.o)
 .debug_abbrev  0x0000723e      0x1de /usr/local/bin/../lib/gcc/arm-elf/4.1.0/../../../../arm-elf/lib/libg.a(locale.o)
 .debug_abbrev  0x0000741c      0x1a8 /usr/local/bin/../lib/gcc/arm-elf/4.1.0/../../../../arm-elf/lib/libg.a(makebuf.o)
 .debug_abbrev  0x000075c4       0xb5 /usr/local/bin/../lib/gcc/arm-elf/4.1.0/../../../../arm-elf/lib/libg.a(memchr.o)
 .debug_abbrev  0x00007679       0x99 /usr/local/bin/../lib/gcc/arm-elf/4.1.0/../../../../arm-elf/lib/libg.a(memmove.o)
 .debug_abbrev  0x00007712      0x280 /usr/local/bin/../lib/gcc/arm-elf/4.1.0/../../../../arm-elf/lib/libg.a(mprec.o)
 .debug_abbrev  0x00007992      0x1c3 /usr/local/bin/../lib/gcc/arm-elf/4.1.0/../../../../arm-elf/lib/libg.a(reallocr.o)
 .debug_abbrev  0x00007b55       0xd4 /usr/local/bin/../lib/gcc/arm-elf/4.1.0/../../../../arm-elf/lib/libg.a(s_isinf.o)
 .debug_abbrev  0x00007c29       0xd4 /usr/local/bin/../lib/gcc/arm-elf/4.1.0/../../../../arm-elf/lib/libg.a(s_isnan.o)
 .debug_abbrev  0x00007cfd      0x407 /usr/local/bin/../lib/gcc/arm-elf/4.1.0/../../../../arm-elf/lib/libg.a(syscalls.o)
 .debug_abbrev  0x00008104      0x1be /usr/local/bin/../lib/gcc/arm-elf/4.1.0/../../../../arm-elf/lib/libg.a(callocr.o)
 .debug_abbrev  0x000082c2      0x157 /usr/local/bin/../lib/gcc/arm-elf/4.1.0/libgcc.a(_eq_df.o)

.debug_info     0x00000000    0x249b7
 .debug_info    0x00000000     0x1008 main.o
 .debug_info    0x00001008      0xca5 syscalls.o
 .debug_info    0x00001cad      0x194 ./uart/uart.o
 .debug_info    0x00001e41      0x42f ./mprintf/mprintf.o
 .debug_info    0x00002270      0x141 ./timer/timer.o
 .debug_info    0x000023b1      0x1cf ./rtc/rtc.o
 .debug_info    0x00002580      0x1b3 ./i2c/i2c.o
 .debug_info    0x00002733       0xd5 ./i2c/i2c_isr.o
 .debug_info    0x00002808      0x53c ./mac/emac.o
 .debug_info    0x00002d44       0x3b ./mac/emac_isr.o
 .debug_info    0x00002d7f      0x73c ./mult/mult_uip.o
 .debug_info    0x000034bb      0x238 ./sft/grlib/grlib.o
 .debug_info    0x000036f3     0x1360 ./sft/sftd.o
 .debug_info    0x00004a53      0x8c5 ./dhcp/dhcpc.o
 .debug_info    0x00005318      0xc0a ./httpd/httpd.o
 .debug_info    0x00005f22      0x77e ./httpd/httpd-cgi.o
 .debug_info    0x000066a0      0x50c ./httpd/httpd-fs.o
 .debug_info    0x00006bac      0x442 ./httpd/http-strings.o
 .debug_info    0x00006fee     0x1063 ./sockets/cli_webSock.o
 .debug_info    0x00008051      0xb24 ./eth/eth.o
 .debug_info    0x00008b75      0x19a ./lcd/lcd.o
 .debug_info    0x00008d0f      0x678 ./cli/cli.o
 .debug_info    0x00009387      0x9f6 ./cli/cli_func.o
 .debug_info    0x00009d7d       0x7a ./cli/debug.o
 .debug_info    0x00009df7      0xbd5 ./telnetd/telnetd.o
 .debug_info    0x0000a9cc      0x177 ./memb/memb.o
 .debug_info    0x0000ab43      0x303 ./telnetd/shell.o
 .debug_info    0x0000ae46      0x487 ../uip/uip_arp.o
 .debug_info    0x0000b2cd      0xac5 ../uip/psock.o
 .debug_info    0x0000bd92      0x115 ../uip/timer.o
 .debug_info    0x0000bea7     0x115e ../uip/uip.o
 .debug_info    0x0000d005       0x4f /tmp/ccuBG77g.o
 .debug_info    0x0000d054       0x88 /usr/local/bin/../lib/gcc/arm-elf/4.1.0/libgcc.a(_udivsi3.o)
 .debug_info    0x0000d0dc       0x88 /usr/local/bin/../lib/gcc/arm-elf/4.1.0/libgcc.a(_umodsi3.o)
 .debug_info    0x0000d164       0x88 /usr/local/bin/../lib/gcc/arm-elf/4.1.0/libgcc.a(_dvmd_tls.o)
 .debug_info    0x0000d1ec      0x479 /usr/local/bin/../lib/gcc/arm-elf/4.1.0/libgcc.a(_addsub_df.o)
 .debug_info    0x0000d665      0x478 /usr/local/bin/../lib/gcc/arm-elf/4.1.0/libgcc.a(_mul_df.o)
 .debug_info    0x0000dadd      0x3b2 /usr/local/bin/../lib/gcc/arm-elf/4.1.0/libgcc.a(_div_df.o)
 .debug_info    0x0000de8f      0x2aa /usr/local/bin/../lib/gcc/arm-elf/4.1.0/libgcc.a(_ne_df.o)
 .debug_info    0x0000e139      0x2aa /usr/local/bin/../lib/gcc/arm-elf/4.1.0/libgcc.a(_gt_df.o)
 .debug_info    0x0000e3e3      0x2aa /usr/local/bin/../lib/gcc/arm-elf/4.1.0/libgcc.a(_ge_df.o)
 .debug_info    0x0000e68d      0x2aa /usr/local/bin/../lib/gcc/arm-elf/4.1.0/libgcc.a(_lt_df.o)
 .debug_info    0x0000e937      0x1bd /usr/local/bin/../lib/gcc/arm-elf/4.1.0/libgcc.a(_si_to_df.o)
 .debug_info    0x0000eaf4      0x2de /usr/local/bin/../lib/gcc/arm-elf/4.1.0/libgcc.a(_df_to_si.o)
 .debug_info    0x0000edd2      0x164 /usr/local/bin/../lib/gcc/arm-elf/4.1.0/libgcc.a(_thenan_df.o)
 .debug_info    0x0000ef36      0x323 /usr/local/bin/../lib/gcc/arm-elf/4.1.0/libgcc.a(_pack_df.o)
 .debug_info    0x0000f259      0x27a /usr/local/bin/../lib/gcc/arm-elf/4.1.0/libgcc.a(_unpack_df.o)
 .debug_info    0x0000f4d3      0x218 /usr/local/bin/../lib/gcc/arm-elf/4.1.0/libgcc.a(_fpcmp_parts_df.o)
 .debug_info    0x0000f6eb      0x913 /usr/local/bin/../lib/gcc/arm-elf/4.1.0/../../../../arm-elf/lib/libg.a(errno.o)
 .debug_info    0x0000fffe      0x974 /usr/local/bin/../lib/gcc/arm-elf/4.1.0/../../../../arm-elf/lib/libg.a(fflush.o)
 .debug_info    0x00010972      0xb61 /usr/local/bin/../lib/gcc/arm-elf/4.1.0/../../../../arm-elf/lib/libg.a(findfp.o)
 .debug_info    0x000114d3      0xad9 /usr/local/bin/../lib/gcc/arm-elf/4.1.0/../../../../arm-elf/lib/libg.a(fwalk.o)
 .debug_info    0x00011fac      0x922 /usr/local/bin/../lib/gcc/arm-elf/4.1.0/../../../../arm-elf/lib/libg.a(impure.o)
 .debug_info    0x000128ce      0xcba /usr/local/bin/../lib/gcc/arm-elf/4.1.0/../../../../arm-elf/lib/libg.a(mallocr.o)
 .debug_info    0x00013588      0x110 /usr/local/bin/../lib/gcc/arm-elf/4.1.0/../../../../arm-elf/lib/libg.a(memcmp.o)
 .debug_info    0x00013698      0x10a /usr/local/bin/../lib/gcc/arm-elf/4.1.0/../../../../arm-elf/lib/libg.a(memcpy.o)
 .debug_info    0x000137a2      0x10e /usr/local/bin/../lib/gcc/arm-elf/4.1.0/../../../../arm-elf/lib/libg.a(memset.o)
 .debug_info    0x000138b0      0x93c /usr/local/bin/../lib/gcc/arm-elf/4.1.0/../../../../arm-elf/lib/libg.a(mlock.o)
 .debug_info    0x000141ec      0x9b0 /usr/local/bin/../lib/gcc/arm-elf/4.1.0/../../../../arm-elf/lib/libg.a(printf.o)
 .debug_info    0x00014b9c      0x960 /usr/local/bin/../lib/gcc/arm-elf/4.1.0/../../../../arm-elf/lib/libg.a(putchar.o)
 .debug_info    0x000154fc      0xa11 /usr/local/bin/../lib/gcc/arm-elf/4.1.0/../../../../arm-elf/lib/libg.a(puts.o)
 .debug_info    0x00015f0d      0xa70 /usr/local/bin/../lib/gcc/arm-elf/4.1.0/../../../../arm-elf/lib/libg.a(stdio.o)
 .debug_info    0x0001697d       0xe6 /usr/local/bin/../lib/gcc/arm-elf/4.1.0/../../../../arm-elf/lib/libg.a(strcat.o)
 .debug_info    0x00016a63      0x10f /usr/local/bin/../lib/gcc/arm-elf/4.1.0/../../../../arm-elf/lib/libg.a(strchr.o)
 .debug_info    0x00016b72       0xd8 /usr/local/bin/../lib/gcc/arm-elf/4.1.0/../../../../arm-elf/lib/libg.a(strcmp.o)
 .debug_info    0x00016c4a      0x107 /usr/local/bin/../lib/gcc/arm-elf/4.1.0/../../../../arm-elf/lib/libg.a(strcpy.o)
 .debug_info    0x00016d51       0xd4 /usr/local/bin/../lib/gcc/arm-elf/4.1.0/../../../../arm-elf/lib/libg.a(strlen.o)
 .debug_info    0x00016e25       0xfc /usr/local/bin/../lib/gcc/arm-elf/4.1.0/../../../../arm-elf/lib/libg.a(strncat.o)
 .debug_info    0x00016f21       0xf2 /usr/local/bin/../lib/gcc/arm-elf/4.1.0/../../../../arm-elf/lib/libg.a(strncmp.o)
 .debug_info    0x00017013      0x127 /usr/local/bin/../lib/gcc/arm-elf/4.1.0/../../../../arm-elf/lib/libg.a(strncpy.o)
 .debug_info    0x0001713a       0xc5 /usr/local/bin/../lib/gcc/arm-elf/4.1.0/../../../../arm-elf/lib/libg.a(strrchr.o)
 .debug_info    0x000171ff       0xd8 /usr/local/bin/../lib/gcc/arm-elf/4.1.0/../../../../arm-elf/lib/libg.a(strstr.o)
 .debug_info    0x000172d7      0x92e /usr/local/bin/../lib/gcc/arm-elf/4.1.0/../../../../arm-elf/lib/libg.a(strtok.o)
 .debug_info    0x00017c05      0x159 /usr/local/bin/../lib/gcc/arm-elf/4.1.0/../../../../arm-elf/lib/libg.a(strtok_r.o)
 .debug_info    0x00017d5e       0x75 /usr/local/bin/../lib/gcc/arm-elf/4.1.0/../../../../arm-elf/lib/libg.a(toupper.o)
 .debug_info    0x00017dd3     0x10ee /usr/local/bin/../lib/gcc/arm-elf/4.1.0/../../../../arm-elf/lib/libg.a(vfprintf.o)
 .debug_info    0x00018ec1      0x954 /usr/local/bin/../lib/gcc/arm-elf/4.1.0/../../../../arm-elf/lib/libg.a(wbuf.o)
 .debug_info    0x00019815      0x9ef /usr/local/bin/../lib/gcc/arm-elf/4.1.0/../../../../arm-elf/lib/libg.a(wcrtomb.o)
 .debug_info    0x0001a204      0xa84 /usr/local/bin/../lib/gcc/arm-elf/4.1.0/../../../../arm-elf/lib/libg.a(wcsrtombs.o)
 .debug_info    0x0001ac88      0x9f7 /usr/local/bin/../lib/gcc/arm-elf/4.1.0/../../../../arm-elf/lib/libg.a(wctomb_r.o)
 .debug_info    0x0001b67f      0x93a /usr/local/bin/../lib/gcc/arm-elf/4.1.0/../../../../arm-elf/lib/libg.a(wsetup.o)
 .debug_info    0x0001bfb9       0x79 /usr/local/bin/../lib/gcc/arm-elf/4.1.0/../../../../arm-elf/lib/libg.a(ctype_.o)
 .debug_info    0x0001c032      0xd61 /usr/local/bin/../lib/gcc/arm-elf/4.1.0/../../../../arm-elf/lib/libg.a(dtoa.o)
 .debug_info    0x0001cd93      0x980 /usr/local/bin/../lib/gcc/arm-elf/4.1.0/../../../../arm-elf/lib/libg.a(fclose.o)
 .debug_info    0x0001d713      0xbb1 /usr/local/bin/../lib/gcc/arm-elf/4.1.0/../../../../arm-elf/lib/libg.a(freer.o)
 .debug_info    0x0001e2c4      0xa5f /usr/local/bin/../lib/gcc/arm-elf/4.1.0/../../../../arm-elf/lib/libg.a(fvwrite.o)
 .debug_info    0x0001ed23      0xb7e /usr/local/bin/../lib/gcc/arm-elf/4.1.0/../../../../arm-elf/lib/libg.a(locale.o)
 .debug_info    0x0001f8a1      0xad9 /usr/local/bin/../lib/gcc/arm-elf/4.1.0/../../../../arm-elf/lib/libg.a(makebuf.o)
 .debug_info    0x0002037a      0x133 /usr/local/bin/../lib/gcc/arm-elf/4.1.0/../../../../arm-elf/lib/libg.a(memchr.o)
 .debug_info    0x000204ad      0x13f /usr/local/bin/../lib/gcc/arm-elf/4.1.0/../../../../arm-elf/lib/libg.a(memmove.o)
 .debug_info    0x000205ec     0x1319 /usr/local/bin/../lib/gcc/arm-elf/4.1.0/../../../../arm-elf/lib/libg.a(mprec.o)
 .debug_info    0x00021905      0xbc7 /usr/local/bin/../lib/gcc/arm-elf/4.1.0/../../../../arm-elf/lib/libg.a(reallocr.o)
 .debug_info    0x000224cc      0x153 /usr/local/bin/../lib/gcc/arm-elf/4.1.0/../../../../arm-elf/lib/libg.a(s_isinf.o)
 .debug_info    0x0002261f      0x151 /usr/local/bin/../lib/gcc/arm-elf/4.1.0/../../../../arm-elf/lib/libg.a(s_isnan.o)
 .debug_info    0x00022770     0x159c /usr/local/bin/../lib/gcc/arm-elf/4.1.0/../../../../arm-elf/lib/libg.a(syscalls.o)
 .debug_info    0x00023d0c      0xa01 /usr/local/bin/../lib/gcc/arm-elf/4.1.0/../../../../arm-elf/lib/libg.a(callocr.o)
 .debug_info    0x0002470d      0x2aa /usr/local/bin/../lib/gcc/arm-elf/4.1.0/libgcc.a(_eq_df.o)

.debug_line     0x00000000     0x7a8d
 .debug_line    0x00000000      0x293 main.o
 .debug_line    0x00000293      0x12b syscalls.o
 .debug_line    0x000003be       0x92 ./uart/uart.o
 .debug_line    0x00000450      0x133 ./mprintf/mprintf.o
 .debug_line    0x00000583       0x61 ./timer/timer.o
 .debug_line    0x000005e4       0x87 ./rtc/rtc.o
 .debug_line    0x0000066b       0x61 ./i2c/i2c.o
 .debug_line    0x000006cc       0x6d ./i2c/i2c_isr.o
 .debug_line    0x00000739      0x107 ./mac/emac.o
 .debug_line    0x00000840       0x3d ./mac/emac_isr.o
 .debug_line    0x0000087d      0x1c9 ./mult/mult_uip.o
 .debug_line    0x00000a46       0xcc ./sft/grlib/grlib.o
 .debug_line    0x00000b12      0x33a ./sft/sftd.o
 .debug_line    0x00000e4c      0x23f ./dhcp/dhcpc.o
 .debug_line    0x0000108b      0x28a ./httpd/httpd.o
 .debug_line    0x00001315      0x202 ./httpd/httpd-cgi.o
 .debug_line    0x00001517      0x18a ./httpd/httpd-fs.o
 .debug_line    0x000016a1       0x32 ./httpd/http-strings.o
 .debug_line    0x000016d3      0x287 ./sockets/cli_webSock.o
 .debug_line    0x0000195a      0x261 ./eth/eth.o
 .debug_line    0x00001bbb       0x6c ./lcd/lcd.o
 .debug_line    0x00001c27       0xf6 ./cli/cli.o
 .debug_line    0x00001d1d      0x254 ./cli/cli_func.o
 .debug_line    0x00001f71       0x1a ./cli/debug.o
 .debug_line    0x00001f8b      0x29f ./telnetd/telnetd.o
 .debug_line    0x0000222a       0x63 ./memb/memb.o
 .debug_line    0x0000228d       0x68 ./telnetd/shell.o
 .debug_line    0x000022f5      0x1c4 ../uip/uip_arp.o
 .debug_line    0x000024b9      0x25d ../uip/psock.o
 .debug_line    0x00002716       0x6e ../uip/timer.o
 .debug_line    0x00002784      0x4ae ../uip/uip.o
 .debug_line    0x00002c32       0x79 /tmp/ccuBG77g.o
 .debug_line    0x00002cab       0x8d /usr/local/bin/../lib/gcc/arm-elf/4.1.0/libgcc.a(_udivsi3.o)
 .debug_line    0x00002d38       0x76 /usr/local/bin/../lib/gcc/arm-elf/4.1.0/libgcc.a(_umodsi3.o)
 .debug_line    0x00002dae       0x61 /usr/local/bin/../lib/gcc/arm-elf/4.1.0/libgcc.a(_dvmd_tls.o)
 .debug_line    0x00002e0f      0x10d /usr/local/bin/../lib/gcc/arm-elf/4.1.0/libgcc.a(_addsub_df.o)
 .debug_line    0x00002f1c       0xf0 /usr/local/bin/../lib/gcc/arm-elf/4.1.0/libgcc.a(_mul_df.o)
 .debug_line    0x0000300c       0xce /usr/local/bin/../lib/gcc/arm-elf/4.1.0/libgcc.a(_div_df.o)
 .debug_line    0x000030da       0x79 /usr/local/bin/../lib/gcc/arm-elf/4.1.0/libgcc.a(_ne_df.o)
 .debug_line    0x00003153       0x79 /usr/local/bin/../lib/gcc/arm-elf/4.1.0/libgcc.a(_gt_df.o)
 .debug_line    0x000031cc       0x79 /usr/local/bin/../lib/gcc/arm-elf/4.1.0/libgcc.a(_ge_df.o)
 .debug_line    0x00003245       0x79 /usr/local/bin/../lib/gcc/arm-elf/4.1.0/libgcc.a(_lt_df.o)
 .debug_line    0x000032be       0x7e /usr/local/bin/../lib/gcc/arm-elf/4.1.0/libgcc.a(_si_to_df.o)
 .debug_line    0x0000333c       0x87 /usr/local/bin/../lib/gcc/arm-elf/4.1.0/libgcc.a(_df_to_si.o)
 .debug_line    0x000033c3       0x54 /usr/local/bin/../lib/gcc/arm-elf/4.1.0/libgcc.a(_thenan_df.o)
 .debug_line    0x00003417       0xca /usr/local/bin/../lib/gcc/arm-elf/4.1.0/libgcc.a(_pack_df.o)
 .debug_line    0x000034e1       0xb1 /usr/local/bin/../lib/gcc/arm-elf/4.1.0/libgcc.a(_unpack_df.o)
 .debug_line    0x00003592       0xa2 /usr/local/bin/../lib/gcc/arm-elf/4.1.0/libgcc.a(_fpcmp_parts_df.o)
 .debug_line    0x00003634      0x10d /usr/local/bin/../lib/gcc/arm-elf/4.1.0/../../../../arm-elf/lib/libg.a(errno.o)
 .debug_line    0x00003741      0x181 /usr/local/bin/../lib/gcc/arm-elf/4.1.0/../../../../arm-elf/lib/libg.a(fflush.o)
 .debug_line    0x000038c2      0x1fa /usr/local/bin/../lib/gcc/arm-elf/4.1.0/../../../../arm-elf/lib/libg.a(findfp.o)
 .debug_line    0x00003abc      0x181 /usr/local/bin/../lib/gcc/arm-elf/4.1.0/../../../../arm-elf/lib/libg.a(fwalk.o)
 .debug_line    0x00003c3d       0xfe /usr/local/bin/../lib/gcc/arm-elf/4.1.0/../../../../arm-elf/lib/libg.a(impure.o)
 .debug_line    0x00003d3b      0x247 /usr/local/bin/../lib/gcc/arm-elf/4.1.0/../../../../arm-elf/lib/libg.a(mallocr.o)
 .debug_line    0x00003f82       0xc7 /usr/local/bin/../lib/gcc/arm-elf/4.1.0/../../../../arm-elf/lib/libg.a(memcmp.o)
 .debug_line    0x00004049       0xcb /usr/local/bin/../lib/gcc/arm-elf/4.1.0/../../../../arm-elf/lib/libg.a(memcpy.o)
 .debug_line    0x00004114       0xd3 /usr/local/bin/../lib/gcc/arm-elf/4.1.0/../../../../arm-elf/lib/libg.a(memset.o)
 .debug_line    0x000041e7      0x110 /usr/local/bin/../lib/gcc/arm-elf/4.1.0/../../../../arm-elf/lib/libg.a(mlock.o)
 .debug_line    0x000042f7      0x12f /usr/local/bin/../lib/gcc/arm-elf/4.1.0/../../../../arm-elf/lib/libg.a(printf.o)
 .debug_line    0x00004426      0x11f /usr/local/bin/../lib/gcc/arm-elf/4.1.0/../../../../arm-elf/lib/libg.a(putchar.o)
 .debug_line    0x00004545      0x134 /usr/local/bin/../lib/gcc/arm-elf/4.1.0/../../../../arm-elf/lib/libg.a(puts.o)
 .debug_line    0x00004679      0x19f /usr/local/bin/../lib/gcc/arm-elf/4.1.0/../../../../arm-elf/lib/libg.a(stdio.o)
 .debug_line    0x00004818       0x7e /usr/local/bin/../lib/gcc/arm-elf/4.1.0/../../../../arm-elf/lib/libg.a(strcat.o)
 .debug_line    0x00004896       0x81 /usr/local/bin/../lib/gcc/arm-elf/4.1.0/../../../../arm-elf/lib/libg.a(strchr.o)
 .debug_line    0x00004917       0x85 /usr/local/bin/../lib/gcc/arm-elf/4.1.0/../../../../arm-elf/lib/libg.a(strcmp.o)
 .debug_line    0x0000499c       0x7d /usr/local/bin/../lib/gcc/arm-elf/4.1.0/../../../../arm-elf/lib/libg.a(strcpy.o)
 .debug_line    0x00004a19       0xaf /usr/local/bin/../lib/gcc/arm-elf/4.1.0/../../../../arm-elf/lib/libg.a(strlen.o)
 .debug_line    0x00004ac8       0xbb /usr/local/bin/../lib/gcc/arm-elf/4.1.0/../../../../arm-elf/lib/libg.a(strncat.o)
 .debug_line    0x00004b83       0xe3 /usr/local/bin/../lib/gcc/arm-elf/4.1.0/../../../../arm-elf/lib/libg.a(strncmp.o)
 .debug_line    0x00004c66       0xd5 /usr/local/bin/../lib/gcc/arm-elf/4.1.0/../../../../arm-elf/lib/libg.a(strncpy.o)
 .debug_line    0x00004d3b       0x79 /usr/local/bin/../lib/gcc/arm-elf/4.1.0/../../../../arm-elf/lib/libg.a(strrchr.o)
 .debug_line    0x00004db4       0xb7 /usr/local/bin/../lib/gcc/arm-elf/4.1.0/../../../../arm-elf/lib/libg.a(strstr.o)
 .debug_line    0x00004e6b      0x110 /usr/local/bin/../lib/gcc/arm-elf/4.1.0/../../../../arm-elf/lib/libg.a(strtok.o)
 .debug_line    0x00004f7b       0xa5 /usr/local/bin/../lib/gcc/arm-elf/4.1.0/../../../../arm-elf/lib/libg.a(strtok_r.o)
 .debug_line    0x00005020       0xbc /usr/local/bin/../lib/gcc/arm-elf/4.1.0/../../../../arm-elf/lib/libg.a(toupper.o)
 .debug_line    0x000050dc      0x581 /usr/local/bin/../lib/gcc/arm-elf/4.1.0/../../../../arm-elf/lib/libg.a(vfprintf.o)
 .debug_line    0x0000565d      0x181 /usr/local/bin/../lib/gcc/arm-elf/4.1.0/../../../../arm-elf/lib/libg.a(wbuf.o)
 .debug_line    0x000057de      0x180 /usr/local/bin/../lib/gcc/arm-elf/4.1.0/../../../../arm-elf/lib/libg.a(wcrtomb.o)
 .debug_line    0x0000595e      0x1a6 /usr/local/bin/../lib/gcc/arm-elf/4.1.0/../../../../arm-elf/lib/libg.a(wcsrtombs.o)
 .debug_line    0x00005b04      0x230 /usr/local/bin/../lib/gcc/arm-elf/4.1.0/../../../../arm-elf/lib/libg.a(wctomb_r.o)
 .debug_line    0x00005d34      0x17e /usr/local/bin/../lib/gcc/arm-elf/4.1.0/../../../../arm-elf/lib/libg.a(wsetup.o)
 .debug_line    0x00005eb2       0x5c /usr/local/bin/../lib/gcc/arm-elf/4.1.0/../../../../arm-elf/lib/libg.a(ctype_.o)
 .debug_line    0x00005f0e      0x482 /usr/local/bin/../lib/gcc/arm-elf/4.1.0/../../../../arm-elf/lib/libg.a(dtoa.o)
 .debug_line    0x00006390      0x180 /usr/local/bin/../lib/gcc/arm-elf/4.1.0/../../../../arm-elf/lib/libg.a(fclose.o)
 .debug_line    0x00006510      0x1c6 /usr/local/bin/../lib/gcc/arm-elf/4.1.0/../../../../arm-elf/lib/libg.a(freer.o)
 .debug_line    0x000066d6      0x219 /usr/local/bin/../lib/gcc/arm-elf/4.1.0/../../../../arm-elf/lib/libg.a(fvwrite.o)
 .debug_line    0x000068ef      0x183 /usr/local/bin/../lib/gcc/arm-elf/4.1.0/../../../../arm-elf/lib/libg.a(locale.o)
 .debug_line    0x00006a72      0x1ab /usr/local/bin/../lib/gcc/arm-elf/4.1.0/../../../../arm-elf/lib/libg.a(makebuf.o)
 .debug_line    0x00006c1d       0xe0 /usr/local/bin/../lib/gcc/arm-elf/4.1.0/../../../../arm-elf/lib/libg.a(memchr.o)
 .debug_line    0x00006cfd       0xdb /usr/local/bin/../lib/gcc/arm-elf/4.1.0/../../../../arm-elf/lib/libg.a(memmove.o)
 .debug_line    0x00006dd8      0x41d /usr/local/bin/../lib/gcc/arm-elf/4.1.0/../../../../arm-elf/lib/libg.a(mprec.o)
 .debug_line    0x000071f5      0x1df /usr/local/bin/../lib/gcc/arm-elf/4.1.0/../../../../arm-elf/lib/libg.a(reallocr.o)
 .debug_line    0x000073d4      0x116 /usr/local/bin/../lib/gcc/arm-elf/4.1.0/../../../../arm-elf/lib/libg.a(s_isinf.o)
 .debug_line    0x000074ea      0x113 /usr/local/bin/../lib/gcc/arm-elf/4.1.0/../../../../arm-elf/lib/libg.a(s_isnan.o)
 .debug_line    0x000075fd      0x2fb /usr/local/bin/../lib/gcc/arm-elf/4.1.0/../../../../arm-elf/lib/libg.a(syscalls.o)
 .debug_line    0x000078f8      0x11c /usr/local/bin/../lib/gcc/arm-elf/4.1.0/../../../../arm-elf/lib/libg.a(callocr.o)
 .debug_line    0x00007a14       0x79 /usr/local/bin/../lib/gcc/arm-elf/4.1.0/libgcc.a(_eq_df.o)

.debug_frame    0x00000000     0x2a20
 .debug_frame   0x00000000      0x13c main.o
 .debug_frame   0x0000013c       0xa8 syscalls.o
 .debug_frame   0x000001e4       0x88 ./uart/uart.o
 .debug_frame   0x0000026c      0x110 ./mprintf/mprintf.o
 .debug_frame   0x0000037c       0x90 ./timer/timer.o
 .debug_frame   0x0000040c       0xb8 ./rtc/rtc.o
 .debug_frame   0x000004c4       0x58 ./i2c/i2c.o
 .debug_frame   0x0000051c       0x30 ./i2c/i2c_isr.o
 .debug_frame   0x0000054c      0x168 ./mac/emac.o
 .debug_frame   0x000006b4       0x30 ./mac/emac_isr.o
 .debug_frame   0x000006e4       0x40 ./mult/mult_uip.o
 .debug_frame   0x00000724       0xc8 ./sft/grlib/grlib.o
 .debug_frame   0x000007ec      0x108 ./sft/sftd.o
 .debug_frame   0x000008f4       0xcc ./dhcp/dhcpc.o
 .debug_frame   0x000009c0       0xb4 ./httpd/httpd.o
 .debug_frame   0x00000a74       0xfc ./httpd/httpd-cgi.o
 .debug_frame   0x00000b70       0x74 ./httpd/httpd-fs.o
 .debug_frame   0x00000be4       0x7c ./sockets/cli_webSock.o
 .debug_frame   0x00000c60       0xd4 ./eth/eth.o
 .debug_frame   0x00000d34       0xc4 ./lcd/lcd.o
 .debug_frame   0x00000df8      0x12c ./cli/cli.o
 .debug_frame   0x00000f24      0x1f8 ./cli/cli_func.o
 .debug_frame   0x0000111c      0x110 ./telnetd/telnetd.o
 .debug_frame   0x0000122c       0x5c ./memb/memb.o
 .debug_frame   0x00001288       0x58 ./telnetd/shell.o
 .debug_frame   0x000012e0       0xc0 ../uip/uip_arp.o
 .debug_frame   0x000013a0       0xfc ../uip/psock.o
 .debug_frame   0x0000149c       0x68 ../uip/timer.o
 .debug_frame   0x00001504      0x194 ../uip/uip.o
 .debug_frame   0x00001698       0x28 /usr/local/bin/../lib/gcc/arm-elf/4.1.0/libgcc.a(_udivsi3.o)
 .debug_frame   0x000016c0       0x28 /usr/local/bin/../lib/gcc/arm-elf/4.1.0/libgcc.a(_umodsi3.o)
 .debug_frame   0x000016e8       0xb0 /usr/local/bin/../lib/gcc/arm-elf/4.1.0/libgcc.a(_addsub_df.o)
 .debug_frame   0x00001798       0x78 /usr/local/bin/../lib/gcc/arm-elf/4.1.0/libgcc.a(_mul_df.o)
 .debug_frame   0x00001810       0x78 /usr/local/bin/../lib/gcc/arm-elf/4.1.0/libgcc.a(_div_df.o)
 .debug_frame   0x00001888       0x3c /usr/local/bin/../lib/gcc/arm-elf/4.1.0/libgcc.a(_ne_df.o)
 .debug_frame   0x000018c4       0x3c /usr/local/bin/../lib/gcc/arm-elf/4.1.0/libgcc.a(_gt_df.o)
 .debug_frame   0x00001900       0x3c /usr/local/bin/../lib/gcc/arm-elf/4.1.0/libgcc.a(_ge_df.o)
 .debug_frame   0x0000193c       0x3c /usr/local/bin/../lib/gcc/arm-elf/4.1.0/libgcc.a(_lt_df.o)
 .debug_frame   0x00001978       0x2c /usr/local/bin/../lib/gcc/arm-elf/4.1.0/libgcc.a(_si_to_df.o)
 .debug_frame   0x000019a4       0x5c /usr/local/bin/../lib/gcc/arm-elf/4.1.0/libgcc.a(_df_to_si.o)
 .debug_frame   0x00001a00       0x68 /usr/local/bin/../lib/gcc/arm-elf/4.1.0/libgcc.a(_pack_df.o)
 .debug_frame   0x00001a68       0x2c /usr/local/bin/../lib/gcc/arm-elf/4.1.0/libgcc.a(_unpack_df.o)
 .debug_frame   0x00001a94       0x5c /usr/local/bin/../lib/gcc/arm-elf/4.1.0/libgcc.a(_fpcmp_parts_df.o)
 .debug_frame   0x00001af0       0x20 /usr/local/bin/../lib/gcc/arm-elf/4.1.0/../../../../arm-elf/lib/libg.a(errno.o)
 .debug_frame   0x00001b10       0x2c /usr/local/bin/../lib/gcc/arm-elf/4.1.0/../../../../arm-elf/lib/libg.a(fflush.o)
 .debug_frame   0x00001b3c      0x114 /usr/local/bin/../lib/gcc/arm-elf/4.1.0/../../../../arm-elf/lib/libg.a(findfp.o)
 .debug_frame   0x00001c50       0x58 /usr/local/bin/../lib/gcc/arm-elf/4.1.0/../../../../arm-elf/lib/libg.a(fwalk.o)
 .debug_frame   0x00001ca8       0x38 /usr/local/bin/../lib/gcc/arm-elf/4.1.0/../../../../arm-elf/lib/libg.a(mallocr.o)
 .debug_frame   0x00001ce0       0x28 /usr/local/bin/../lib/gcc/arm-elf/4.1.0/../../../../arm-elf/lib/libg.a(memcmp.o)
 .debug_frame   0x00001d08       0x28 /usr/local/bin/../lib/gcc/arm-elf/4.1.0/../../../../arm-elf/lib/libg.a(memcpy.o)
 .debug_frame   0x00001d30       0x20 /usr/local/bin/../lib/gcc/arm-elf/4.1.0/../../../../arm-elf/lib/libg.a(memset.o)
 .debug_frame   0x00001d50       0x30 /usr/local/bin/../lib/gcc/arm-elf/4.1.0/../../../../arm-elf/lib/libg.a(mlock.o)
 .debug_frame   0x00001d80       0x58 /usr/local/bin/../lib/gcc/arm-elf/4.1.0/../../../../arm-elf/lib/libg.a(printf.o)
 .debug_frame   0x00001dd8       0x38 /usr/local/bin/../lib/gcc/arm-elf/4.1.0/../../../../arm-elf/lib/libg.a(putchar.o)
 .debug_frame   0x00001e10       0x40 /usr/local/bin/../lib/gcc/arm-elf/4.1.0/../../../../arm-elf/lib/libg.a(puts.o)
 .debug_frame   0x00001e50       0x70 /usr/local/bin/../lib/gcc/arm-elf/4.1.0/../../../../arm-elf/lib/libg.a(stdio.o)
 .debug_frame   0x00001ec0       0x28 /usr/local/bin/../lib/gcc/arm-elf/4.1.0/../../../../arm-elf/lib/libg.a(strcat.o)
 .debug_frame   0x00001ee8       0x28 /usr/local/bin/../lib/gcc/arm-elf/4.1.0/../../../../arm-elf/lib/libg.a(strchr.o)
 .debug_frame   0x00001f10       0x20 /usr/local/bin/../lib/gcc/arm-elf/4.1.0/../../../../arm-elf/lib/libg.a(strcmp.o)
 .debug_frame   0x00001f30       0x28 /usr/local/bin/../lib/gcc/arm-elf/4.1.0/../../../../arm-elf/lib/libg.a(strcpy.o)
 .debug_frame   0x00001f58       0x20 /usr/local/bin/../lib/gcc/arm-elf/4.1.0/../../../../arm-elf/lib/libg.a(strlen.o)
 .debug_frame   0x00001f78       0x28 /usr/local/bin/../lib/gcc/arm-elf/4.1.0/../../../../arm-elf/lib/libg.a(strncat.o)
 .debug_frame   0x00001fa0       0x28 /usr/local/bin/../lib/gcc/arm-elf/4.1.0/../../../../arm-elf/lib/libg.a(strncmp.o)
 .debug_frame   0x00001fc8       0x2c /usr/local/bin/../lib/gcc/arm-elf/4.1.0/../../../../arm-elf/lib/libg.a(strncpy.o)
 .debug_frame   0x00001ff4       0x2c /usr/local/bin/../lib/gcc/arm-elf/4.1.0/../../../../arm-elf/lib/libg.a(strrchr.o)
 .debug_frame   0x00002020       0x20 /usr/local/bin/../lib/gcc/arm-elf/4.1.0/../../../../arm-elf/lib/libg.a(strstr.o)
 .debug_frame   0x00002040       0x20 /usr/local/bin/../lib/gcc/arm-elf/4.1.0/../../../../arm-elf/lib/libg.a(strtok.o)
 .debug_frame   0x00002060       0x3c /usr/local/bin/../lib/gcc/arm-elf/4.1.0/../../../../arm-elf/lib/libg.a(strtok_r.o)
 .debug_frame   0x0000209c       0x20 /usr/local/bin/../lib/gcc/arm-elf/4.1.0/../../../../arm-elf/lib/libg.a(toupper.o)
 .debug_frame   0x000020bc       0x6c /usr/local/bin/../lib/gcc/arm-elf/4.1.0/../../../../arm-elf/lib/libg.a(vfprintf.o)
 .debug_frame   0x00002128       0x2c /usr/local/bin/../lib/gcc/arm-elf/4.1.0/../../../../arm-elf/lib/libg.a(wbuf.o)
 .debug_frame   0x00002154       0x44 /usr/local/bin/../lib/gcc/arm-elf/4.1.0/../../../../arm-elf/lib/libg.a(wcrtomb.o)
 .debug_frame   0x00002198       0x54 /usr/local/bin/../lib/gcc/arm-elf/4.1.0/../../../../arm-elf/lib/libg.a(wcsrtombs.o)
 .debug_frame   0x000021ec       0x30 /usr/local/bin/../lib/gcc/arm-elf/4.1.0/../../../../arm-elf/lib/libg.a(wctomb_r.o)
 .debug_frame   0x0000221c       0x2c /usr/local/bin/../lib/gcc/arm-elf/4.1.0/../../../../arm-elf/lib/libg.a(wsetup.o)
 .debug_frame   0x00002248       0x60 /usr/local/bin/../lib/gcc/arm-elf/4.1.0/../../../../arm-elf/lib/libg.a(dtoa.o)
 .debug_frame   0x000022a8       0x3c /usr/local/bin/../lib/gcc/arm-elf/4.1.0/../../../../arm-elf/lib/libg.a(fclose.o)
 .debug_frame   0x000022e4       0x54 /usr/local/bin/../lib/gcc/arm-elf/4.1.0/../../../../arm-elf/lib/libg.a(freer.o)
 .debug_frame   0x00002338       0x38 /usr/local/bin/../lib/gcc/arm-elf/4.1.0/../../../../arm-elf/lib/libg.a(fvwrite.o)
 .debug_frame   0x00002370       0x6c /usr/local/bin/../lib/gcc/arm-elf/4.1.0/../../../../arm-elf/lib/libg.a(locale.o)
 .debug_frame   0x000023dc       0x30 /usr/local/bin/../lib/gcc/arm-elf/4.1.0/../../../../arm-elf/lib/libg.a(makebuf.o)
 .debug_frame   0x0000240c       0x28 /usr/local/bin/../lib/gcc/arm-elf/4.1.0/../../../../arm-elf/lib/libg.a(memchr.o)
 .debug_frame   0x00002434       0x28 /usr/local/bin/../lib/gcc/arm-elf/4.1.0/../../../../arm-elf/lib/libg.a(memmove.o)
 .debug_frame   0x0000245c      0x1f0 /usr/local/bin/../lib/gcc/arm-elf/4.1.0/../../../../arm-elf/lib/libg.a(mprec.o)
 .debug_frame   0x0000264c       0x38 /usr/local/bin/../lib/gcc/arm-elf/4.1.0/../../../../arm-elf/lib/libg.a(reallocr.o)
 .debug_frame   0x00002684       0x28 /usr/local/bin/../lib/gcc/arm-elf/4.1.0/../../../../arm-elf/lib/libg.a(s_isinf.o)
 .debug_frame   0x000026ac       0x28 /usr/local/bin/../lib/gcc/arm-elf/4.1.0/../../../../arm-elf/lib/libg.a(s_isnan.o)
 .debug_frame   0x000026d4      0x2e8 /usr/local/bin/../lib/gcc/arm-elf/4.1.0/../../../../arm-elf/lib/libg.a(syscalls.o)
 .debug_frame   0x000029bc       0x28 /usr/local/bin/../lib/gcc/arm-elf/4.1.0/../../../../arm-elf/lib/libg.a(callocr.o)
 .debug_frame   0x000029e4       0x3c /usr/local/bin/../lib/gcc/arm-elf/4.1.0/libgcc.a(_eq_df.o)

.debug_loc      0x00000000     0xcd74
 .debug_loc     0x00000000      0x1b2 main.o
 .debug_loc     0x000001b2      0x222 syscalls.o
 .debug_loc     0x000003d4      0x1ee ./uart/uart.o
 .debug_loc     0x000005c2      0x942 ./mprintf/mprintf.o
 .debug_loc     0x00000f04       0x31 ./timer/timer.o
 .debug_loc     0x00000f35       0x5d ./rtc/rtc.o
 .debug_loc     0x00000f92       0x50 ./i2c/i2c.o
 .debug_loc     0x00000fe2       0x1f ./i2c/i2c_isr.o
 .debug_loc     0x00001001      0x251 ./mac/emac.o
 .debug_loc     0x00001252       0x1f ./mac/emac_isr.o
 .debug_loc     0x00001271       0x3e ./mult/mult_uip.o
 .debug_loc     0x000012af      0x129 ./sft/grlib/grlib.o
 .debug_loc     0x000013d8      0x316 ./sft/sftd.o
 .debug_loc     0x000016ee      0x22f ./dhcp/dhcpc.o
 .debug_loc     0x0000191d      0x2d0 ./httpd/httpd.o
 .debug_loc     0x00001bed      0x2c8 ./httpd/httpd-cgi.o
 .debug_loc     0x00001eb5       0xd4 ./httpd/httpd-fs.o
 .debug_loc     0x00001f89       0xcf ./sockets/cli_webSock.o
 .debug_loc     0x00002058      0x104 ./eth/eth.o
 .debug_loc     0x0000215c      0x177 ./lcd/lcd.o
 .debug_loc     0x000022d3      0x3a0 ./cli/cli.o
 .debug_loc     0x00002673      0x4d9 ./cli/cli_func.o
 .debug_loc     0x00002b4c      0x295 ./telnetd/telnetd.o
 .debug_loc     0x00002de1      0x13a ./memb/memb.o
 .debug_loc     0x00002f1b       0xa4 ./telnetd/shell.o
 .debug_loc     0x00002fbf      0x155 ../uip/uip_arp.o
 .debug_loc     0x00003114      0x37d ../uip/psock.o
 .debug_loc     0x00003491       0xca ../uip/timer.o
 .debug_loc     0x0000355b      0x54c ../uip/uip.o
 .debug_loc     0x00003aa7      0x353 /usr/local/bin/../lib/gcc/arm-elf/4.1.0/libgcc.a(_addsub_df.o)
 .debug_loc     0x00003dfa      0x239 /usr/local/bin/../lib/gcc/arm-elf/4.1.0/libgcc.a(_mul_df.o)
 .debug_loc     0x00004033      0x179 /usr/local/bin/../lib/gcc/arm-elf/4.1.0/libgcc.a(_div_df.o)
 .debug_loc     0x000041ac       0x6f /usr/local/bin/../lib/gcc/arm-elf/4.1.0/libgcc.a(_ne_df.o)
 .debug_loc     0x0000421b       0x6f /usr/local/bin/../lib/gcc/arm-elf/4.1.0/libgcc.a(_gt_df.o)
 .debug_loc     0x0000428a       0x6f /usr/local/bin/../lib/gcc/arm-elf/4.1.0/libgcc.a(_ge_df.o)
 .debug_loc     0x000042f9       0x6f /usr/local/bin/../lib/gcc/arm-elf/4.1.0/libgcc.a(_lt_df.o)
 .debug_loc     0x00004368       0x7f /usr/local/bin/../lib/gcc/arm-elf/4.1.0/libgcc.a(_si_to_df.o)
 .debug_loc     0x000043e7       0xb0 /usr/local/bin/../lib/gcc/arm-elf/4.1.0/libgcc.a(_df_to_si.o)
 .debug_loc     0x00004497      0x1ac /usr/local/bin/../lib/gcc/arm-elf/4.1.0/libgcc.a(_pack_df.o)
 .debug_loc     0x00004643       0xa0 /usr/local/bin/../lib/gcc/arm-elf/4.1.0/libgcc.a(_unpack_df.o)
 .debug_loc     0x000046e3       0x94 /usr/local/bin/../lib/gcc/arm-elf/4.1.0/libgcc.a(_fpcmp_parts_df.o)
 .debug_loc     0x00004777       0xad /usr/local/bin/../lib/gcc/arm-elf/4.1.0/../../../../arm-elf/lib/libg.a(fflush.o)
 .debug_loc     0x00004824      0x20c /usr/local/bin/../lib/gcc/arm-elf/4.1.0/../../../../arm-elf/lib/libg.a(findfp.o)
 .debug_loc     0x00004a30      0x17b /usr/local/bin/../lib/gcc/arm-elf/4.1.0/../../../../arm-elf/lib/libg.a(fwalk.o)
 .debug_loc     0x00004bab      0x795 /usr/local/bin/../lib/gcc/arm-elf/4.1.0/../../../../arm-elf/lib/libg.a(mallocr.o)
 .debug_loc     0x00005340      0x15f /usr/local/bin/../lib/gcc/arm-elf/4.1.0/../../../../arm-elf/lib/libg.a(memcmp.o)
 .debug_loc     0x0000549f       0xdb /usr/local/bin/../lib/gcc/arm-elf/4.1.0/../../../../arm-elf/lib/libg.a(memcpy.o)
 .debug_loc     0x0000557a       0xa9 /usr/local/bin/../lib/gcc/arm-elf/4.1.0/../../../../arm-elf/lib/libg.a(memset.o)
 .debug_loc     0x00005623       0xbf /usr/local/bin/../lib/gcc/arm-elf/4.1.0/../../../../arm-elf/lib/libg.a(printf.o)
 .debug_loc     0x000056e2       0x9a /usr/local/bin/../lib/gcc/arm-elf/4.1.0/../../../../arm-elf/lib/libg.a(putchar.o)
 .debug_loc     0x0000577c       0xa3 /usr/local/bin/../lib/gcc/arm-elf/4.1.0/../../../../arm-elf/lib/libg.a(puts.o)
 .debug_loc     0x0000581f      0x1a4 /usr/local/bin/../lib/gcc/arm-elf/4.1.0/../../../../arm-elf/lib/libg.a(stdio.o)
 .debug_loc     0x000059c3       0x84 /usr/local/bin/../lib/gcc/arm-elf/4.1.0/../../../../arm-elf/lib/libg.a(strcat.o)
 .debug_loc     0x00005a47       0xaa /usr/local/bin/../lib/gcc/arm-elf/4.1.0/../../../../arm-elf/lib/libg.a(strchr.o)
 .debug_loc     0x00005af1       0xaf /usr/local/bin/../lib/gcc/arm-elf/4.1.0/../../../../arm-elf/lib/libg.a(strcmp.o)
 .debug_loc     0x00005ba0       0x79 /usr/local/bin/../lib/gcc/arm-elf/4.1.0/../../../../arm-elf/lib/libg.a(strcpy.o)
 .debug_loc     0x00005c19       0x47 /usr/local/bin/../lib/gcc/arm-elf/4.1.0/../../../../arm-elf/lib/libg.a(strlen.o)
 .debug_loc     0x00005c60       0x8f /usr/local/bin/../lib/gcc/arm-elf/4.1.0/../../../../arm-elf/lib/libg.a(strncat.o)
 .debug_loc     0x00005cef      0x102 /usr/local/bin/../lib/gcc/arm-elf/4.1.0/../../../../arm-elf/lib/libg.a(strncmp.o)
 .debug_loc     0x00005df1      0x15f /usr/local/bin/../lib/gcc/arm-elf/4.1.0/../../../../arm-elf/lib/libg.a(strncpy.o)
 .debug_loc     0x00005f50       0x7c /usr/local/bin/../lib/gcc/arm-elf/4.1.0/../../../../arm-elf/lib/libg.a(strrchr.o)
 .debug_loc     0x00005fcc       0x1e /usr/local/bin/../lib/gcc/arm-elf/4.1.0/../../../../arm-elf/lib/libg.a(strstr.o)
 .debug_loc     0x00005fea       0x26 /usr/local/bin/../lib/gcc/arm-elf/4.1.0/../../../../arm-elf/lib/libg.a(strtok.o)
 .debug_loc     0x00006010      0x15c /usr/local/bin/../lib/gcc/arm-elf/4.1.0/../../../../arm-elf/lib/libg.a(strtok_r.o)
 .debug_loc     0x0000616c       0x13 /usr/local/bin/../lib/gcc/arm-elf/4.1.0/../../../../arm-elf/lib/libg.a(toupper.o)
 .debug_loc     0x0000617f     0x1eef /usr/local/bin/../lib/gcc/arm-elf/4.1.0/../../../../arm-elf/lib/libg.a(vfprintf.o)
 .debug_loc     0x0000806e       0xa5 /usr/local/bin/../lib/gcc/arm-elf/4.1.0/../../../../arm-elf/lib/libg.a(wbuf.o)
 .debug_loc     0x00008113      0x145 /usr/local/bin/../lib/gcc/arm-elf/4.1.0/../../../../arm-elf/lib/libg.a(wcrtomb.o)
 .debug_loc     0x00008258      0x2b2 /usr/local/bin/../lib/gcc/arm-elf/4.1.0/../../../../arm-elf/lib/libg.a(wcsrtombs.o)
 .debug_loc     0x0000850a      0x248 /usr/local/bin/../lib/gcc/arm-elf/4.1.0/../../../../arm-elf/lib/libg.a(wctomb_r.o)
 .debug_loc     0x00008752       0x3d /usr/local/bin/../lib/gcc/arm-elf/4.1.0/../../../../arm-elf/lib/libg.a(wsetup.o)
 .debug_loc     0x0000878f     0x1665 /usr/local/bin/../lib/gcc/arm-elf/4.1.0/../../../../arm-elf/lib/libg.a(dtoa.o)
 .debug_loc     0x00009df4       0xa2 /usr/local/bin/../lib/gcc/arm-elf/4.1.0/../../../../arm-elf/lib/libg.a(fclose.o)
 .debug_loc     0x00009e96      0x38f /usr/local/bin/../lib/gcc/arm-elf/4.1.0/../../../../arm-elf/lib/libg.a(freer.o)
 .debug_loc     0x0000a225      0x328 /usr/local/bin/../lib/gcc/arm-elf/4.1.0/../../../../arm-elf/lib/libg.a(fvwrite.o)
 .debug_loc     0x0000a54d       0xe9 /usr/local/bin/../lib/gcc/arm-elf/4.1.0/../../../../arm-elf/lib/libg.a(locale.o)
 .debug_loc     0x0000a636       0xa7 /usr/local/bin/../lib/gcc/arm-elf/4.1.0/../../../../arm-elf/lib/libg.a(makebuf.o)
 .debug_loc     0x0000a6dd      0x193 /usr/local/bin/../lib/gcc/arm-elf/4.1.0/../../../../arm-elf/lib/libg.a(memchr.o)
 .debug_loc     0x0000a870      0x151 /usr/local/bin/../lib/gcc/arm-elf/4.1.0/../../../../arm-elf/lib/libg.a(memmove.o)
 .debug_loc     0x0000a9c1      0xffc /usr/local/bin/../lib/gcc/arm-elf/4.1.0/../../../../arm-elf/lib/libg.a(mprec.o)
 .debug_loc     0x0000b9bd      0x922 /usr/local/bin/../lib/gcc/arm-elf/4.1.0/../../../../arm-elf/lib/libg.a(reallocr.o)
 .debug_loc     0x0000c2df       0x6d /usr/local/bin/../lib/gcc/arm-elf/4.1.0/../../../../arm-elf/lib/libg.a(s_isinf.o)
 .debug_loc     0x0000c34c       0x4f /usr/local/bin/../lib/gcc/arm-elf/4.1.0/../../../../arm-elf/lib/libg.a(s_isnan.o)
 .debug_loc     0x0000c39b      0x894 /usr/local/bin/../lib/gcc/arm-elf/4.1.0/../../../../arm-elf/lib/libg.a(syscalls.o)
 .debug_loc     0x0000cc2f       0xd6 /usr/local/bin/../lib/gcc/arm-elf/4.1.0/../../../../arm-elf/lib/libg.a(callocr.o)
 .debug_loc     0x0000cd05       0x6f /usr/local/bin/../lib/gcc/arm-elf/4.1.0/libgcc.a(_eq_df.o)

.debug_pubnames
                0x00000000     0x289d
 .debug_pubnames
                0x00000000      0x1ee main.o
 .debug_pubnames
                0x000001ee       0x7a syscalls.o
 .debug_pubnames
                0x00000268       0x87 ./uart/uart.o
 .debug_pubnames
                0x000002ef       0x77 ./mprintf/mprintf.o
 .debug_pubnames
                0x00000366       0x72 ./timer/timer.o
 .debug_pubnames
                0x000003d8       0xa8 ./rtc/rtc.o
 .debug_pubnames
                0x00000480       0xf2 ./i2c/i2c.o
 .debug_pubnames
                0x00000572       0x28 ./i2c/i2c_isr.o
 .debug_pubnames
                0x0000059a      0x218 ./mac/emac.o
 .debug_pubnames
                0x000007b2       0x27 ./mac/emac_isr.o
 .debug_pubnames
                0x000007d9       0x65 ./mult/mult_uip.o
 .debug_pubnames
                0x0000083e       0x90 ./sft/grlib/grlib.o
 .debug_pubnames
                0x000008ce      0x126 ./sft/sftd.o
 .debug_pubnames
                0x000009f4       0x86 ./dhcp/dhcpc.o
 .debug_pubnames
                0x00000a7a       0x5f ./httpd/httpd.o
 .debug_pubnames
                0x00000ad9      0x168 ./httpd/httpd-cgi.o
 .debug_pubnames
                0x00000c41       0xae ./httpd/httpd-fs.o
 .debug_pubnames
                0x00000cef      0x271 ./httpd/http-strings.o
 .debug_pubnames
                0x00000f60       0x9f ./sockets/cli_webSock.o
 .debug_pubnames
                0x00000fff      0x191 ./eth/eth.o
 .debug_pubnames
                0x00001190       0x77 ./lcd/lcd.o
 .debug_pubnames
                0x00001207      0x1a3 ./cli/cli.o
 .debug_pubnames
                0x000013aa      0x1fe ./cli/cli_func.o
 .debug_pubnames
                0x000015a8      0x153 ./telnetd/telnetd.o
 .debug_pubnames
                0x000016fb       0x3d ./memb/memb.o
 .debug_pubnames
                0x00001738      0x100 ./telnetd/shell.o
 .debug_pubnames
                0x00001838       0x94 ../uip/uip_arp.o
 .debug_pubnames
                0x000018cc       0xbc ../uip/psock.o
 .debug_pubnames
                0x00001988       0x54 ../uip/timer.o
 .debug_pubnames
                0x000019dc      0x215 ../uip/uip.o
 .debug_pubnames
                0x00001bf1       0x2c /usr/local/bin/../lib/gcc/arm-elf/4.1.0/libgcc.a(_addsub_df.o)
 .debug_pubnames
                0x00001c1d       0x1f /usr/local/bin/../lib/gcc/arm-elf/4.1.0/libgcc.a(_mul_df.o)
 .debug_pubnames
                0x00001c3c       0x1f /usr/local/bin/../lib/gcc/arm-elf/4.1.0/libgcc.a(_div_df.o)
 .debug_pubnames
                0x00001c5b       0x1e /usr/local/bin/../lib/gcc/arm-elf/4.1.0/libgcc.a(_ne_df.o)
 .debug_pubnames
                0x00001c79       0x1e /usr/local/bin/../lib/gcc/arm-elf/4.1.0/libgcc.a(_gt_df.o)
 .debug_pubnames
                0x00001c97       0x1e /usr/local/bin/../lib/gcc/arm-elf/4.1.0/libgcc.a(_ge_df.o)
 .debug_pubnames
                0x00001cb5       0x1e /usr/local/bin/../lib/gcc/arm-elf/4.1.0/libgcc.a(_lt_df.o)
 .debug_pubnames
                0x00001cd3       0x22 /usr/local/bin/../lib/gcc/arm-elf/4.1.0/libgcc.a(_si_to_df.o)
 .debug_pubnames
                0x00001cf5       0x20 /usr/local/bin/../lib/gcc/arm-elf/4.1.0/libgcc.a(_df_to_si.o)
 .debug_pubnames
                0x00001d15       0x22 /usr/local/bin/../lib/gcc/arm-elf/4.1.0/libgcc.a(_thenan_df.o)
 .debug_pubnames
                0x00001d37       0x1f /usr/local/bin/../lib/gcc/arm-elf/4.1.0/libgcc.a(_pack_df.o)
 .debug_pubnames
                0x00001d56       0x21 /usr/local/bin/../lib/gcc/arm-elf/4.1.0/libgcc.a(_unpack_df.o)
 .debug_pubnames
                0x00001d77       0x26 /usr/local/bin/../lib/gcc/arm-elf/4.1.0/libgcc.a(_fpcmp_parts_df.o)
 .debug_pubnames
                0x00001d9d       0x1e /usr/local/bin/../lib/gcc/arm-elf/4.1.0/../../../../arm-elf/lib/libg.a(errno.o)
 .debug_pubnames
                0x00001dbb       0x1d /usr/local/bin/../lib/gcc/arm-elf/4.1.0/../../../../arm-elf/lib/libg.a(fflush.o)
 .debug_pubnames
                0x00001dd8       0xdb /usr/local/bin/../lib/gcc/arm-elf/4.1.0/../../../../arm-elf/lib/libg.a(findfp.o)
 .debug_pubnames
                0x00001eb3       0x2e /usr/local/bin/../lib/gcc/arm-elf/4.1.0/../../../../arm-elf/lib/libg.a(fwalk.o)
 .debug_pubnames
                0x00001ee1       0x39 /usr/local/bin/../lib/gcc/arm-elf/4.1.0/../../../../arm-elf/lib/libg.a(impure.o)
 .debug_pubnames
                0x00001f1a       0xce /usr/local/bin/../lib/gcc/arm-elf/4.1.0/../../../../arm-elf/lib/libg.a(mallocr.o)
 .debug_pubnames
                0x00001fe8       0x1d /usr/local/bin/../lib/gcc/arm-elf/4.1.0/../../../../arm-elf/lib/libg.a(memcmp.o)
 .debug_pubnames
                0x00002005       0x1d /usr/local/bin/../lib/gcc/arm-elf/4.1.0/../../../../arm-elf/lib/libg.a(memcpy.o)
 .debug_pubnames
                0x00002022       0x1d /usr/local/bin/../lib/gcc/arm-elf/4.1.0/../../../../arm-elf/lib/libg.a(memset.o)
 .debug_pubnames
                0x0000203f       0x38 /usr/local/bin/../lib/gcc/arm-elf/4.1.0/../../../../arm-elf/lib/libg.a(mlock.o)
 .debug_pubnames
                0x00002077       0x2b /usr/local/bin/../lib/gcc/arm-elf/4.1.0/../../../../arm-elf/lib/libg.a(printf.o)
 .debug_pubnames
                0x000020a2       0x2d /usr/local/bin/../lib/gcc/arm-elf/4.1.0/../../../../arm-elf/lib/libg.a(putchar.o)
 .debug_pubnames
                0x000020cf       0x27 /usr/local/bin/../lib/gcc/arm-elf/4.1.0/../../../../arm-elf/lib/libg.a(puts.o)
 .debug_pubnames
                0x000020f6       0x44 /usr/local/bin/../lib/gcc/arm-elf/4.1.0/../../../../arm-elf/lib/libg.a(stdio.o)
 .debug_pubnames
                0x0000213a       0x1d /usr/local/bin/../lib/gcc/arm-elf/4.1.0/../../../../arm-elf/lib/libg.a(strcat.o)
 .debug_pubnames
                0x00002157       0x1d /usr/local/bin/../lib/gcc/arm-elf/4.1.0/../../../../arm-elf/lib/libg.a(strchr.o)
 .debug_pubnames
                0x00002174       0x1d /usr/local/bin/../lib/gcc/arm-elf/4.1.0/../../../../arm-elf/lib/libg.a(strcmp.o)
 .debug_pubnames
                0x00002191       0x1d /usr/local/bin/../lib/gcc/arm-elf/4.1.0/../../../../arm-elf/lib/libg.a(strcpy.o)
 .debug_pubnames
                0x000021ae       0x1d /usr/local/bin/../lib/gcc/arm-elf/4.1.0/../../../../arm-elf/lib/libg.a(strlen.o)
 .debug_pubnames
                0x000021cb       0x1e /usr/local/bin/../lib/gcc/arm-elf/4.1.0/../../../../arm-elf/lib/libg.a(strncat.o)
 .debug_pubnames
                0x000021e9       0x1e /usr/local/bin/../lib/gcc/arm-elf/4.1.0/../../../../arm-elf/lib/libg.a(strncmp.o)
 .debug_pubnames
                0x00002207       0x1e /usr/local/bin/../lib/gcc/arm-elf/4.1.0/../../../../arm-elf/lib/libg.a(strncpy.o)
 .debug_pubnames
                0x00002225       0x1e /usr/local/bin/../lib/gcc/arm-elf/4.1.0/../../../../arm-elf/lib/libg.a(strrchr.o)
 .debug_pubnames
                0x00002243       0x1d /usr/local/bin/../lib/gcc/arm-elf/4.1.0/../../../../arm-elf/lib/libg.a(strstr.o)
 .debug_pubnames
                0x00002260       0x1d /usr/local/bin/../lib/gcc/arm-elf/4.1.0/../../../../arm-elf/lib/libg.a(strtok.o)
 .debug_pubnames
                0x0000227d       0x2e /usr/local/bin/../lib/gcc/arm-elf/4.1.0/../../../../arm-elf/lib/libg.a(strtok_r.o)
 .debug_pubnames
                0x000022ab       0x1e /usr/local/bin/../lib/gcc/arm-elf/4.1.0/../../../../arm-elf/lib/libg.a(toupper.o)
 .debug_pubnames
                0x000022c9       0x2f /usr/local/bin/../lib/gcc/arm-elf/4.1.0/../../../../arm-elf/lib/libg.a(vfprintf.o)
 .debug_pubnames
                0x000022f8       0x1e /usr/local/bin/../lib/gcc/arm-elf/4.1.0/../../../../arm-elf/lib/libg.a(wbuf.o)
 .debug_pubnames
                0x00002316       0x2d /usr/local/bin/../lib/gcc/arm-elf/4.1.0/../../../../arm-elf/lib/libg.a(wcrtomb.o)
 .debug_pubnames
                0x00002343       0x31 /usr/local/bin/../lib/gcc/arm-elf/4.1.0/../../../../arm-elf/lib/libg.a(wcsrtombs.o)
 .debug_pubnames
                0x00002374       0x20 /usr/local/bin/../lib/gcc/arm-elf/4.1.0/../../../../arm-elf/lib/libg.a(wctomb_r.o)
 .debug_pubnames
                0x00002394       0x20 /usr/local/bin/../lib/gcc/arm-elf/4.1.0/../../../../arm-elf/lib/libg.a(wsetup.o)
 .debug_pubnames
                0x000023b4       0x2e /usr/local/bin/../lib/gcc/arm-elf/4.1.0/../../../../arm-elf/lib/libg.a(ctype_.o)
 .debug_pubnames
                0x000023e2       0x1e /usr/local/bin/../lib/gcc/arm-elf/4.1.0/../../../../arm-elf/lib/libg.a(dtoa.o)
 .debug_pubnames
                0x00002400       0x2b /usr/local/bin/../lib/gcc/arm-elf/4.1.0/../../../../arm-elf/lib/libg.a(fclose.o)
 .debug_pubnames
                0x0000242b       0x31 /usr/local/bin/../lib/gcc/arm-elf/4.1.0/../../../../arm-elf/lib/libg.a(freer.o)
 .debug_pubnames
                0x0000245c       0x21 /usr/local/bin/../lib/gcc/arm-elf/4.1.0/../../../../arm-elf/lib/libg.a(fvwrite.o)
 .debug_pubnames
                0x0000247d       0xc3 /usr/local/bin/../lib/gcc/arm-elf/4.1.0/../../../../arm-elf/lib/libg.a(locale.o)
 .debug_pubnames
                0x00002540       0x21 /usr/local/bin/../lib/gcc/arm-elf/4.1.0/../../../../arm-elf/lib/libg.a(makebuf.o)
 .debug_pubnames
                0x00002561       0x1d /usr/local/bin/../lib/gcc/arm-elf/4.1.0/../../../../arm-elf/lib/libg.a(memchr.o)
 .debug_pubnames
                0x0000257e       0x1e /usr/local/bin/../lib/gcc/arm-elf/4.1.0/../../../../arm-elf/lib/libg.a(memmove.o)
 .debug_pubnames
                0x0000259c      0x112 /usr/local/bin/../lib/gcc/arm-elf/4.1.0/../../../../arm-elf/lib/libg.a(mprec.o)
 .debug_pubnames
                0x000026ae       0x21 /usr/local/bin/../lib/gcc/arm-elf/4.1.0/../../../../arm-elf/lib/libg.a(reallocr.o)
 .debug_pubnames
                0x000026cf       0x1c /usr/local/bin/../lib/gcc/arm-elf/4.1.0/../../../../arm-elf/lib/libg.a(s_isinf.o)
 .debug_pubnames
                0x000026eb       0x1c /usr/local/bin/../lib/gcc/arm-elf/4.1.0/../../../../arm-elf/lib/libg.a(s_isnan.o)
 .debug_pubnames
                0x00002707      0x158 /usr/local/bin/../lib/gcc/arm-elf/4.1.0/../../../../arm-elf/lib/libg.a(syscalls.o)
 .debug_pubnames
                0x0000285f       0x20 /usr/local/bin/../lib/gcc/arm-elf/4.1.0/../../../../arm-elf/lib/libg.a(callocr.o)
 .debug_pubnames
                0x0000287f       0x1e /usr/local/bin/../lib/gcc/arm-elf/4.1.0/libgcc.a(_eq_df.o)

.debug_aranges  0x00000000      0xb88
 .debug_aranges
                0x00000000       0x20 main.o
 .debug_aranges
                0x00000020       0x20 syscalls.o
 .debug_aranges
                0x00000040       0x20 ./uart/uart.o
 .debug_aranges
                0x00000060       0x20 ./mprintf/mprintf.o
 .debug_aranges
                0x00000080       0x20 ./timer/timer.o
 .debug_aranges
                0x000000a0       0x20 ./rtc/rtc.o
 .debug_aranges
                0x000000c0       0x20 ./i2c/i2c.o
 .debug_aranges
                0x000000e0       0x20 ./i2c/i2c_isr.o
 .debug_aranges
                0x00000100       0x20 ./mac/emac.o
 .debug_aranges
                0x00000120       0x20 ./mac/emac_isr.o
 .debug_aranges
                0x00000140       0x20 ./mult/mult_uip.o
 .debug_aranges
                0x00000160       0x20 ./sft/grlib/grlib.o
 .debug_aranges
                0x00000180       0x20 ./sft/sftd.o
 .debug_aranges
                0x000001a0       0x20 ./dhcp/dhcpc.o
 .debug_aranges
                0x000001c0       0x20 ./httpd/httpd.o
 .debug_aranges
                0x000001e0       0x20 ./httpd/httpd-cgi.o
 .debug_aranges
                0x00000200       0x20 ./httpd/httpd-fs.o
 .debug_aranges
                0x00000220       0x20 ./sockets/cli_webSock.o
 .debug_aranges
                0x00000240       0x20 ./eth/eth.o
 .debug_aranges
                0x00000260       0x20 ./lcd/lcd.o
 .debug_aranges
                0x00000280       0x20 ./cli/cli.o
 .debug_aranges
                0x000002a0       0x20 ./cli/cli_func.o
 .debug_aranges
                0x000002c0       0x20 ./telnetd/telnetd.o
 .debug_aranges
                0x000002e0       0x20 ./memb/memb.o
 .debug_aranges
                0x00000300       0x20 ./telnetd/shell.o
 .debug_aranges
                0x00000320       0x20 ../uip/uip_arp.o
 .debug_aranges
                0x00000340       0x20 ../uip/psock.o
 .debug_aranges
                0x00000360       0x20 ../uip/timer.o
 .debug_aranges
                0x00000380       0x20 ../uip/uip.o
 .debug_aranges
                0x000003a0       0x28 /tmp/ccuBG77g.o
 .debug_aranges
                0x000003c8       0x20 /usr/local/bin/../lib/gcc/arm-elf/4.1.0/libgcc.a(_udivsi3.o)
 .debug_aranges
                0x000003e8       0x20 /usr/local/bin/../lib/gcc/arm-elf/4.1.0/libgcc.a(_umodsi3.o)
 .debug_aranges
                0x00000408       0x20 /usr/local/bin/../lib/gcc/arm-elf/4.1.0/libgcc.a(_dvmd_tls.o)
 .debug_aranges
                0x00000428       0x20 /usr/local/bin/../lib/gcc/arm-elf/4.1.0/libgcc.a(_addsub_df.o)
 .debug_aranges
                0x00000448       0x20 /usr/local/bin/../lib/gcc/arm-elf/4.1.0/libgcc.a(_mul_df.o)
 .debug_aranges
                0x00000468       0x20 /usr/local/bin/../lib/gcc/arm-elf/4.1.0/libgcc.a(_div_df.o)
 .debug_aranges
                0x00000488       0x20 /usr/local/bin/../lib/gcc/arm-elf/4.1.0/libgcc.a(_ne_df.o)
 .debug_aranges
                0x000004a8       0x20 /usr/local/bin/../lib/gcc/arm-elf/4.1.0/libgcc.a(_gt_df.o)
 .debug_aranges
                0x000004c8       0x20 /usr/local/bin/../lib/gcc/arm-elf/4.1.0/libgcc.a(_ge_df.o)
 .debug_aranges
                0x000004e8       0x20 /usr/local/bin/../lib/gcc/arm-elf/4.1.0/libgcc.a(_lt_df.o)
 .debug_aranges
                0x00000508       0x20 /usr/local/bin/../lib/gcc/arm-elf/4.1.0/libgcc.a(_si_to_df.o)
 .debug_aranges
                0x00000528       0x20 /usr/local/bin/../lib/gcc/arm-elf/4.1.0/libgcc.a(_df_to_si.o)
 .debug_aranges
                0x00000548       0x20 /usr/local/bin/../lib/gcc/arm-elf/4.1.0/libgcc.a(_pack_df.o)
 .debug_aranges
                0x00000568       0x20 /usr/local/bin/../lib/gcc/arm-elf/4.1.0/libgcc.a(_unpack_df.o)
 .debug_aranges
                0x00000588       0x20 /usr/local/bin/../lib/gcc/arm-elf/4.1.0/libgcc.a(_fpcmp_parts_df.o)
 .debug_aranges
                0x000005a8       0x20 /usr/local/bin/../lib/gcc/arm-elf/4.1.0/../../../../arm-elf/lib/libg.a(errno.o)
 .debug_aranges
                0x000005c8       0x20 /usr/local/bin/../lib/gcc/arm-elf/4.1.0/../../../../arm-elf/lib/libg.a(fflush.o)
 .debug_aranges
                0x000005e8       0x20 /usr/local/bin/../lib/gcc/arm-elf/4.1.0/../../../../arm-elf/lib/libg.a(findfp.o)
 .debug_aranges
                0x00000608       0x20 /usr/local/bin/../lib/gcc/arm-elf/4.1.0/../../../../arm-elf/lib/libg.a(fwalk.o)
 .debug_aranges
                0x00000628       0x20 /usr/local/bin/../lib/gcc/arm-elf/4.1.0/../../../../arm-elf/lib/libg.a(mallocr.o)
 .debug_aranges
                0x00000648       0x20 /usr/local/bin/../lib/gcc/arm-elf/4.1.0/../../../../arm-elf/lib/libg.a(memcmp.o)
 .debug_aranges
                0x00000668       0x20 /usr/local/bin/../lib/gcc/arm-elf/4.1.0/../../../../arm-elf/lib/libg.a(memcpy.o)
 .debug_aranges
                0x00000688       0x20 /usr/local/bin/../lib/gcc/arm-elf/4.1.0/../../../../arm-elf/lib/libg.a(memset.o)
 .debug_aranges
                0x000006a8       0x20 /usr/local/bin/../lib/gcc/arm-elf/4.1.0/../../../../arm-elf/lib/libg.a(mlock.o)
 .debug_aranges
                0x000006c8       0x20 /usr/local/bin/../lib/gcc/arm-elf/4.1.0/../../../../arm-elf/lib/libg.a(printf.o)
 .debug_aranges
                0x000006e8       0x20 /usr/local/bin/../lib/gcc/arm-elf/4.1.0/../../../../arm-elf/lib/libg.a(putchar.o)
 .debug_aranges
                0x00000708       0x20 /usr/local/bin/../lib/gcc/arm-elf/4.1.0/../../../../arm-elf/lib/libg.a(puts.o)
 .debug_aranges
                0x00000728       0x20 /usr/local/bin/../lib/gcc/arm-elf/4.1.0/../../../../arm-elf/lib/libg.a(stdio.o)
 .debug_aranges
                0x00000748       0x20 /usr/local/bin/../lib/gcc/arm-elf/4.1.0/../../../../arm-elf/lib/libg.a(strcat.o)
 .debug_aranges
                0x00000768       0x20 /usr/local/bin/../lib/gcc/arm-elf/4.1.0/../../../../arm-elf/lib/libg.a(strchr.o)
 .debug_aranges
                0x00000788       0x20 /usr/local/bin/../lib/gcc/arm-elf/4.1.0/../../../../arm-elf/lib/libg.a(strcmp.o)
 .debug_aranges
                0x000007a8       0x20 /usr/local/bin/../lib/gcc/arm-elf/4.1.0/../../../../arm-elf/lib/libg.a(strcpy.o)
 .debug_aranges
                0x000007c8       0x20 /usr/local/bin/../lib/gcc/arm-elf/4.1.0/../../../../arm-elf/lib/libg.a(strlen.o)
 .debug_aranges
                0x000007e8       0x20 /usr/local/bin/../lib/gcc/arm-elf/4.1.0/../../../../arm-elf/lib/libg.a(strncat.o)
 .debug_aranges
                0x00000808       0x20 /usr/local/bin/../lib/gcc/arm-elf/4.1.0/../../../../arm-elf/lib/libg.a(strncmp.o)
 .debug_aranges
                0x00000828       0x20 /usr/local/bin/../lib/gcc/arm-elf/4.1.0/../../../../arm-elf/lib/libg.a(strncpy.o)
 .debug_aranges
                0x00000848       0x20 /usr/local/bin/../lib/gcc/arm-elf/4.1.0/../../../../arm-elf/lib/libg.a(strrchr.o)
 .debug_aranges
                0x00000868       0x20 /usr/local/bin/../lib/gcc/arm-elf/4.1.0/../../../../arm-elf/lib/libg.a(strstr.o)
 .debug_aranges
                0x00000888       0x20 /usr/local/bin/../lib/gcc/arm-elf/4.1.0/../../../../arm-elf/lib/libg.a(strtok.o)
 .debug_aranges
                0x000008a8       0x20 /usr/local/bin/../lib/gcc/arm-elf/4.1.0/../../../../arm-elf/lib/libg.a(strtok_r.o)
 .debug_aranges
                0x000008c8       0x20 /usr/local/bin/../lib/gcc/arm-elf/4.1.0/../../../../arm-elf/lib/libg.a(toupper.o)
 .debug_aranges
                0x000008e8       0x20 /usr/local/bin/../lib/gcc/arm-elf/4.1.0/../../../../arm-elf/lib/libg.a(vfprintf.o)
 .debug_aranges
                0x00000908       0x20 /usr/local/bin/../lib/gcc/arm-elf/4.1.0/../../../../arm-elf/lib/libg.a(wbuf.o)
 .debug_aranges
                0x00000928       0x20 /usr/local/bin/../lib/gcc/arm-elf/4.1.0/../../../../arm-elf/lib/libg.a(wcrtomb.o)
 .debug_aranges
                0x00000948       0x20 /usr/local/bin/../lib/gcc/arm-elf/4.1.0/../../../../arm-elf/lib/libg.a(wcsrtombs.o)
 .debug_aranges
                0x00000968       0x20 /usr/local/bin/../lib/gcc/arm-elf/4.1.0/../../../../arm-elf/lib/libg.a(wctomb_r.o)
 .debug_aranges
                0x00000988       0x20 /usr/local/bin/../lib/gcc/arm-elf/4.1.0/../../../../arm-elf/lib/libg.a(wsetup.o)
 .debug_aranges
                0x000009a8       0x20 /usr/local/bin/../lib/gcc/arm-elf/4.1.0/../../../../arm-elf/lib/libg.a(dtoa.o)
 .debug_aranges
                0x000009c8       0x20 /usr/local/bin/../lib/gcc/arm-elf/4.1.0/../../../../arm-elf/lib/libg.a(fclose.o)
 .debug_aranges
                0x000009e8       0x20 /usr/local/bin/../lib/gcc/arm-elf/4.1.0/../../../../arm-elf/lib/libg.a(freer.o)
 .debug_aranges
                0x00000a08       0x20 /usr/local/bin/../lib/gcc/arm-elf/4.1.0/../../../../arm-elf/lib/libg.a(fvwrite.o)
 .debug_aranges
                0x00000a28       0x20 /usr/local/bin/../lib/gcc/arm-elf/4.1.0/../../../../arm-elf/lib/libg.a(locale.o)
 .debug_aranges
                0x00000a48       0x20 /usr/local/bin/../lib/gcc/arm-elf/4.1.0/../../../../arm-elf/lib/libg.a(makebuf.o)
 .debug_aranges
                0x00000a68       0x20 /usr/local/bin/../lib/gcc/arm-elf/4.1.0/../../../../arm-elf/lib/libg.a(memchr.o)
 .debug_aranges
                0x00000a88       0x20 /usr/local/bin/../lib/gcc/arm-elf/4.1.0/../../../../arm-elf/lib/libg.a(memmove.o)
 .debug_aranges
                0x00000aa8       0x20 /usr/local/bin/../lib/gcc/arm-elf/4.1.0/../../../../arm-elf/lib/libg.a(mprec.o)
 .debug_aranges
                0x00000ac8       0x20 /usr/local/bin/../lib/gcc/arm-elf/4.1.0/../../../../arm-elf/lib/libg.a(reallocr.o)
 .debug_aranges
                0x00000ae8       0x20 /usr/local/bin/../lib/gcc/arm-elf/4.1.0/../../../../arm-elf/lib/libg.a(s_isinf.o)
 .debug_aranges
                0x00000b08       0x20 /usr/local/bin/../lib/gcc/arm-elf/4.1.0/../../../../arm-elf/lib/libg.a(s_isnan.o)
 .debug_aranges
                0x00000b28       0x20 /usr/local/bin/../lib/gcc/arm-elf/4.1.0/../../../../arm-elf/lib/libg.a(syscalls.o)
 .debug_aranges
                0x00000b48       0x20 /usr/local/bin/../lib/gcc/arm-elf/4.1.0/../../../../arm-elf/lib/libg.a(callocr.o)
 .debug_aranges
                0x00000b68       0x20 /usr/local/bin/../lib/gcc/arm-elf/4.1.0/libgcc.a(_eq_df.o)

.debug_str      0x00000000     0x3be9
 .debug_str     0x00000000      0x676 main.o
                                0x75c (size before relaxing)
 .debug_str     0x00000676      0x124 syscalls.o
                                0x5a7 (size before relaxing)
 .debug_str     0x0000079a       0x8d ./uart/uart.o
                                 0xdc (size before relaxing)
 .debug_str     0x00000827       0x9a ./mprintf/mprintf.o
                                0x110 (size before relaxing)
 .debug_str     0x000008c1       0x6c ./timer/timer.o
                                 0xad (size before relaxing)
 .debug_str     0x0000092d       0x82 ./rtc/rtc.o
                                0x11e (size before relaxing)
 .debug_str     0x000009af       0x91 ./i2c/i2c.o
                                0x110 (size before relaxing)
 .debug_str     0x00000a40       0x2a ./i2c/i2c_isr.o
                                 0xc8 (size before relaxing)
 .debug_str     0x00000a6a      0x156 ./mac/emac.o
                                0x2ab (size before relaxing)
 .debug_str     0x00000bc0       0x20 ./mac/emac_isr.o
                                 0x54 (size before relaxing)
 .debug_str     0x00000be0      0x2ad ./mult/mult_uip.o
                                0x43b (size before relaxing)
 .debug_str     0x00000e8d       0x79 ./sft/grlib/grlib.o
                                0x10c (size before relaxing)
 .debug_str     0x00000f06       0xfd ./sft/sftd.o
                                0x8d4 (size before relaxing)
 .debug_str     0x00001003      0x1e2 ./dhcp/dhcpc.o
                                0x3d8 (size before relaxing)
 .debug_str     0x000011e5      0x1e9 ./httpd/httpd.o
                                0x605 (size before relaxing)
 .debug_str     0x000013ce       0xf6 ./httpd/httpd-cgi.o
                                0x38a (size before relaxing)
 .debug_str     0x000014c4       0xe1 ./httpd/httpd-fs.o
                                0x26c (size before relaxing)
 .debug_str     0x000015a5       0xbf ./httpd/http-strings.o
                                0x237 (size before relaxing)
 .debug_str     0x00001664       0x67 ./sockets/cli_webSock.o
                                0x824 (size before relaxing)
 .debug_str     0x000016cb       0xc1 ./eth/eth.o
                                0x605 (size before relaxing)
 .debug_str     0x0000178c       0x60 ./lcd/lcd.o
                                0x12a (size before relaxing)
 .debug_str     0x000017ec      0x129 ./cli/cli.o
                                0x2e9 (size before relaxing)
 .debug_str     0x00001915       0xeb ./cli/cli_func.o
                                0x3fb (size before relaxing)
 .debug_str     0x00001a00        0xc ./cli/debug.o
                                 0xc9 (size before relaxing)
 .debug_str     0x00001a0c       0xde ./telnetd/telnetd.o
                                0x5ca (size before relaxing)
 .debug_str     0x00001aea       0x30 ./memb/memb.o
                                 0xf8 (size before relaxing)
 .debug_str     0x00001b1a       0x55 ./telnetd/shell.o
                                0x1e6 (size before relaxing)
 .debug_str     0x00001b6f       0xaf ../uip/uip_arp.o
                                0x29f (size before relaxing)
 .debug_str     0x00001c1e       0xcb ../uip/psock.o
                                0x4ff (size before relaxing)
 .debug_str     0x00001ce9       0x41 ../uip/timer.o
                                 0xa9 (size before relaxing)
 .debug_str     0x00001d2a      0x2b2 ../uip/uip.o
                                0x808 (size before relaxing)
 .debug_str     0x00001fdc      0x173 /usr/local/bin/../lib/gcc/arm-elf/4.1.0/libgcc.a(_addsub_df.o)
                                0x220 (size before relaxing)
 .debug_str     0x0000214f       0x45 /usr/local/bin/../lib/gcc/arm-elf/4.1.0/libgcc.a(_mul_df.o)
                                0x1f8 (size before relaxing)
 .debug_str     0x00002194       0x35 /usr/local/bin/../lib/gcc/arm-elf/4.1.0/libgcc.a(_div_df.o)
                                0x1e8 (size before relaxing)
 .debug_str     0x000021c9        0x8 /usr/local/bin/../lib/gcc/arm-elf/4.1.0/libgcc.a(_ne_df.o)
                                0x1b5 (size before relaxing)
 .debug_str     0x000021d1        0x8 /usr/local/bin/../lib/gcc/arm-elf/4.1.0/libgcc.a(_gt_df.o)
                                0x1b5 (size before relaxing)
 .debug_str     0x000021d9        0x8 /usr/local/bin/../lib/gcc/arm-elf/4.1.0/libgcc.a(_ge_df.o)
                                0x1b5 (size before relaxing)
 .debug_str     0x000021e1        0x8 /usr/local/bin/../lib/gcc/arm-elf/4.1.0/libgcc.a(_lt_df.o)
                                0x1b5 (size before relaxing)
 .debug_str     0x000021e9        0xc /usr/local/bin/../lib/gcc/arm-elf/4.1.0/libgcc.a(_si_to_df.o)
                                0x183 (size before relaxing)
 .debug_str     0x000021f5        0xa /usr/local/bin/../lib/gcc/arm-elf/4.1.0/libgcc.a(_df_to_si.o)
                                0x1be (size before relaxing)
 .debug_str     0x000021ff        0x0 /usr/local/bin/../lib/gcc/arm-elf/4.1.0/libgcc.a(_thenan_df.o)
                                0x15a (size before relaxing)
 .debug_str     0x000021ff       0x10 /usr/local/bin/../lib/gcc/arm-elf/4.1.0/libgcc.a(_pack_df.o)
                                0x1bd (size before relaxing)
 .debug_str     0x0000220f       0x13 /usr/local/bin/../lib/gcc/arm-elf/4.1.0/libgcc.a(_unpack_df.o)
                                0x1a7 (size before relaxing)
 .debug_str     0x00002222       0x10 /usr/local/bin/../lib/gcc/arm-elf/4.1.0/libgcc.a(_fpcmp_parts_df.o)
                                0x17d (size before relaxing)
 .debug_str     0x00002232       0x8b /usr/local/bin/../lib/gcc/arm-elf/4.1.0/../../../../arm-elf/lib/libg.a(errno.o)
                                0x4b5 (size before relaxing)
 .debug_str     0x000022bd       0x9e /usr/local/bin/../lib/gcc/arm-elf/4.1.0/../../../../arm-elf/lib/libg.a(fflush.o)
                                0x4d9 (size before relaxing)
 .debug_str     0x0000235b      0x101 /usr/local/bin/../lib/gcc/arm-elf/4.1.0/../../../../arm-elf/lib/libg.a(findfp.o)
                                0x5b3 (size before relaxing)
 .debug_str     0x0000245c       0x63 /usr/local/bin/../lib/gcc/arm-elf/4.1.0/../../../../arm-elf/lib/libg.a(fwalk.o)
                                0x4f4 (size before relaxing)
 .debug_str     0x000024bf       0x90 /usr/local/bin/../lib/gcc/arm-elf/4.1.0/../../../../arm-elf/lib/libg.a(impure.o)
                                0x4cd (size before relaxing)
 .debug_str     0x0000254f      0x260 /usr/local/bin/../lib/gcc/arm-elf/4.1.0/../../../../arm-elf/lib/libg.a(mallocr.o)
                                0x6b0 (size before relaxing)
 .debug_str     0x000027af       0x8d /usr/local/bin/../lib/gcc/arm-elf/4.1.0/../../../../arm-elf/lib/libg.a(memcmp.o)
                                0x11d (size before relaxing)
 .debug_str     0x0000283c       0x6e /usr/local/bin/../lib/gcc/arm-elf/4.1.0/../../../../arm-elf/lib/libg.a(memcpy.o)
                                 0xe7 (size before relaxing)
 .debug_str     0x000028aa       0x54 /usr/local/bin/../lib/gcc/arm-elf/4.1.0/../../../../arm-elf/lib/libg.a(memset.o)
                                0x131 (size before relaxing)
 .debug_str     0x000028fe       0x72 /usr/local/bin/../lib/gcc/arm-elf/4.1.0/../../../../arm-elf/lib/libg.a(mlock.o)
                                0x4d6 (size before relaxing)
 .debug_str     0x00002970       0x49 /usr/local/bin/../lib/gcc/arm-elf/4.1.0/../../../../arm-elf/lib/libg.a(printf.o)
                                0x4e2 (size before relaxing)
 .debug_str     0x000029b9       0x4b /usr/local/bin/../lib/gcc/arm-elf/4.1.0/../../../../arm-elf/lib/libg.a(putchar.o)
                                0x4ce (size before relaxing)
 .debug_str     0x00002a04       0x81 /usr/local/bin/../lib/gcc/arm-elf/4.1.0/../../../../arm-elf/lib/libg.a(puts.o)
                                0x508 (size before relaxing)
 .debug_str     0x00002a85       0x6e /usr/local/bin/../lib/gcc/arm-elf/4.1.0/../../../../arm-elf/lib/libg.a(stdio.o)
                                0x4fc (size before relaxing)
 .debug_str     0x00002af3       0x52 /usr/local/bin/../lib/gcc/arm-elf/4.1.0/../../../../arm-elf/lib/libg.a(strcat.o)
                                0x121 (size before relaxing)
 .debug_str     0x00002b45       0x47 /usr/local/bin/../lib/gcc/arm-elf/4.1.0/../../../../arm-elf/lib/libg.a(strchr.o)
                                0x128 (size before relaxing)
 .debug_str     0x00002b8c       0x40 /usr/local/bin/../lib/gcc/arm-elf/4.1.0/../../../../arm-elf/lib/libg.a(strcmp.o)
                                0x116 (size before relaxing)
 .debug_str     0x00002bcc       0x47 /usr/local/bin/../lib/gcc/arm-elf/4.1.0/../../../../arm-elf/lib/libg.a(strcpy.o)
                                0x138 (size before relaxing)
 .debug_str     0x00002c13       0x47 /usr/local/bin/../lib/gcc/arm-elf/4.1.0/../../../../arm-elf/lib/libg.a(strlen.o)
                                0x130 (size before relaxing)
 .debug_str     0x00002c5a       0x49 /usr/local/bin/../lib/gcc/arm-elf/4.1.0/../../../../arm-elf/lib/libg.a(strncat.o)
                                0x12a (size before relaxing)
 .debug_str     0x00002ca3       0x49 /usr/local/bin/../lib/gcc/arm-elf/4.1.0/../../../../arm-elf/lib/libg.a(strncmp.o)
                                0x11f (size before relaxing)
 .debug_str     0x00002cec       0x49 /usr/local/bin/../lib/gcc/arm-elf/4.1.0/../../../../arm-elf/lib/libg.a(strncpy.o)
                                0x147 (size before relaxing)
 .debug_str     0x00002d35       0x49 /usr/local/bin/../lib/gcc/arm-elf/4.1.0/../../../../arm-elf/lib/libg.a(strrchr.o)
                                0x11d (size before relaxing)
 .debug_str     0x00002d7e       0x58 /usr/local/bin/../lib/gcc/arm-elf/4.1.0/../../../../arm-elf/lib/libg.a(strstr.o)
                                0x12e (size before relaxing)
 .debug_str     0x00002dd6       0x47 /usr/local/bin/../lib/gcc/arm-elf/4.1.0/../../../../arm-elf/lib/libg.a(strtok.o)
                                0x4bd (size before relaxing)
 .debug_str     0x00002e1d       0x71 /usr/local/bin/../lib/gcc/arm-elf/4.1.0/../../../../arm-elf/lib/libg.a(strtok_r.o)
                                0x14f (size before relaxing)
 .debug_str     0x00002e8e       0x99 /usr/local/bin/../lib/gcc/arm-elf/4.1.0/../../../../arm-elf/lib/libg.a(toupper.o)
                                 0xaa (size before relaxing)
 .debug_str     0x00002f27      0x179 /usr/local/bin/../lib/gcc/arm-elf/4.1.0/../../../../arm-elf/lib/libg.a(vfprintf.o)
                                0x6bb (size before relaxing)
 .debug_str     0x000030a0       0x45 /usr/local/bin/../lib/gcc/arm-elf/4.1.0/../../../../arm-elf/lib/libg.a(wbuf.o)
                                0x4c5 (size before relaxing)
 .debug_str     0x000030e5       0x5b /usr/local/bin/../lib/gcc/arm-elf/4.1.0/../../../../arm-elf/lib/libg.a(wcrtomb.o)
                                0x4f0 (size before relaxing)
 .debug_str     0x00003140       0x5f /usr/local/bin/../lib/gcc/arm-elf/4.1.0/../../../../arm-elf/lib/libg.a(wcsrtombs.o)
                                0x505 (size before relaxing)
 .debug_str     0x0000319f       0x69 /usr/local/bin/../lib/gcc/arm-elf/4.1.0/../../../../arm-elf/lib/libg.a(wctomb_r.o)
                                0x4e5 (size before relaxing)
 .debug_str     0x00003208       0x49 /usr/local/bin/../lib/gcc/arm-elf/4.1.0/../../../../arm-elf/lib/libg.a(wsetup.o)
                                0x4c9 (size before relaxing)
 .debug_str     0x00003251       0x47 /usr/local/bin/../lib/gcc/arm-elf/4.1.0/../../../../arm-elf/lib/libg.a(ctype_.o)
                                 0xbb (size before relaxing)
 .debug_str     0x00003298      0x107 /usr/local/bin/../lib/gcc/arm-elf/4.1.0/../../../../arm-elf/lib/libg.a(dtoa.o)
                                0x5c0 (size before relaxing)
 .debug_str     0x0000339f       0x50 /usr/local/bin/../lib/gcc/arm-elf/4.1.0/../../../../arm-elf/lib/libg.a(fclose.o)
                                0x4d5 (size before relaxing)
 .debug_str     0x000033ef       0x3c /usr/local/bin/../lib/gcc/arm-elf/4.1.0/../../../../arm-elf/lib/libg.a(freer.o)
                                0x602 (size before relaxing)
 .debug_str     0x0000342b       0x61 /usr/local/bin/../lib/gcc/arm-elf/4.1.0/../../../../arm-elf/lib/libg.a(fvwrite.o)
                                0x524 (size before relaxing)
 .debug_str     0x0000348c      0x1d9 /usr/local/bin/../lib/gcc/arm-elf/4.1.0/../../../../arm-elf/lib/libg.a(locale.o)
                                0x65c (size before relaxing)
 .debug_str     0x00003665       0x56 /usr/local/bin/../lib/gcc/arm-elf/4.1.0/../../../../arm-elf/lib/libg.a(makebuf.o)
                                0x5b0 (size before relaxing)
 .debug_str     0x000036bb       0x55 /usr/local/bin/../lib/gcc/arm-elf/4.1.0/../../../../arm-elf/lib/libg.a(memchr.o)
                                0x13e (size before relaxing)
 .debug_str     0x00003710       0x52 /usr/local/bin/../lib/gcc/arm-elf/4.1.0/../../../../arm-elf/lib/libg.a(memmove.o)
                                0x150 (size before relaxing)
 .debug_str     0x00003762       0xd8 /usr/local/bin/../lib/gcc/arm-elf/4.1.0/../../../../arm-elf/lib/libg.a(mprec.o)
                                0x5a8 (size before relaxing)
 .debug_str     0x0000383a       0x61 /usr/local/bin/../lib/gcc/arm-elf/4.1.0/../../../../arm-elf/lib/libg.a(reallocr.o)
                                0x582 (size before relaxing)
 .debug_str     0x0000389b       0xa9 /usr/local/bin/../lib/gcc/arm-elf/4.1.0/../../../../arm-elf/lib/libg.a(s_isinf.o)
                                0x174 (size before relaxing)
 .debug_str     0x00003944       0x3f /usr/local/bin/../lib/gcc/arm-elf/4.1.0/../../../../arm-elf/lib/libg.a(s_isnan.o)
                                0x174 (size before relaxing)
 .debug_str     0x00003983      0x245 /usr/local/bin/../lib/gcc/arm-elf/4.1.0/../../../../arm-elf/lib/libg.a(syscalls.o)
                                0x7bd (size before relaxing)
 .debug_str     0x00003bc8       0x19 /usr/local/bin/../lib/gcc/arm-elf/4.1.0/../../../../arm-elf/lib/libg.a(callocr.o)
                                0x501 (size before relaxing)
 .debug_str     0x00003be1        0x8 /usr/local/bin/../lib/gcc/arm-elf/4.1.0/libgcc.a(_eq_df.o)
                                0x1b5 (size before relaxing)

.comment        0x00000000      0x68a
 .comment       0x00000000       0x12 main.o
 .comment       0x00000012       0x12 syscalls.o
 .comment       0x00000024       0x12 ./uart/uart.o
 .comment       0x00000036       0x12 ./mprintf/mprintf.o
 .comment       0x00000048       0x12 ./timer/timer.o
 .comment       0x0000005a       0x12 ./rtc/rtc.o
 .comment       0x0000006c       0x12 ./i2c/i2c.o
 .comment       0x0000007e       0x12 ./i2c/i2c_isr.o
 .comment       0x00000090       0x12 ./mac/emac.o
 .comment       0x000000a2       0x12 ./mac/emac_isr.o
 .comment       0x000000b4       0x12 ./mult/mult_uip.o
 .comment       0x000000c6       0x12 ./sft/grlib/grlib.o
 .comment       0x000000d8       0x12 ./sft/sftd.o
 .comment       0x000000ea       0x12 ./dhcp/dhcpc.o
 .comment       0x000000fc       0x12 ./httpd/httpd.o
 .comment       0x0000010e       0x12 ./httpd/httpd-cgi.o
 .comment       0x00000120       0x12 ./httpd/httpd-fs.o
 .comment       0x00000132       0x12 ./httpd/http-strings.o
 .comment       0x00000144       0x12 ./sockets/cli_webSock.o
 .comment       0x00000156       0x12 ./eth/eth.o
 .comment       0x00000168       0x12 ./lcd/lcd.o
 .comment       0x0000017a       0x12 ./cli/cli.o
 .comment       0x0000018c       0x12 ./cli/cli_func.o
 .comment       0x0000019e       0x12 ./cli/debug.o
 .comment       0x000001b0       0x12 ./telnetd/telnetd.o
 .comment       0x000001c2       0x12 ./memb/memb.o
 .comment       0x000001d4       0x12 ./telnetd/shell.o
 .comment       0x000001e6       0x12 ../uip/uip_arp.o
 .comment       0x000001f8       0x12 ../uip/psock.o
 .comment       0x0000020a       0x12 ../uip/timer.o
 .comment       0x0000021c       0x12 ../uip/uip.o
 .comment       0x0000022e       0x12 /usr/local/bin/../lib/gcc/arm-elf/4.1.0/libgcc.a(_addsub_df.o)
 .comment       0x00000240       0x12 /usr/local/bin/../lib/gcc/arm-elf/4.1.0/libgcc.a(_mul_df.o)
 .comment       0x00000252       0x12 /usr/local/bin/../lib/gcc/arm-elf/4.1.0/libgcc.a(_div_df.o)
 .comment       0x00000264       0x12 /usr/local/bin/../lib/gcc/arm-elf/4.1.0/libgcc.a(_ne_df.o)
 .comment       0x00000276       0x12 /usr/local/bin/../lib/gcc/arm-elf/4.1.0/libgcc.a(_gt_df.o)
 .comment       0x00000288       0x12 /usr/local/bin/../lib/gcc/arm-elf/4.1.0/libgcc.a(_ge_df.o)
 .comment       0x0000029a       0x12 /usr/local/bin/../lib/gcc/arm-elf/4.1.0/libgcc.a(_lt_df.o)
 .comment       0x000002ac       0x12 /usr/local/bin/../lib/gcc/arm-elf/4.1.0/libgcc.a(_si_to_df.o)
 .comment       0x000002be       0x12 /usr/local/bin/../lib/gcc/arm-elf/4.1.0/libgcc.a(_df_to_si.o)
 .comment       0x000002d0       0x12 /usr/local/bin/../lib/gcc/arm-elf/4.1.0/libgcc.a(_thenan_df.o)
 .comment       0x000002e2       0x12 /usr/local/bin/../lib/gcc/arm-elf/4.1.0/libgcc.a(_pack_df.o)
 .comment       0x000002f4       0x12 /usr/local/bin/../lib/gcc/arm-elf/4.1.0/libgcc.a(_unpack_df.o)
 .comment       0x00000306       0x12 /usr/local/bin/../lib/gcc/arm-elf/4.1.0/libgcc.a(_fpcmp_parts_df.o)
 .comment       0x00000318       0x12 /usr/local/bin/../lib/gcc/arm-elf/4.1.0/../../../../arm-elf/lib/libg.a(errno.o)
 .comment       0x0000032a       0x12 /usr/local/bin/../lib/gcc/arm-elf/4.1.0/../../../../arm-elf/lib/libg.a(fflush.o)
 .comment       0x0000033c       0x12 /usr/local/bin/../lib/gcc/arm-elf/4.1.0/../../../../arm-elf/lib/libg.a(findfp.o)
 .comment       0x0000034e       0x12 /usr/local/bin/../lib/gcc/arm-elf/4.1.0/../../../../arm-elf/lib/libg.a(fwalk.o)
 .comment       0x00000360       0x12 /usr/local/bin/../lib/gcc/arm-elf/4.1.0/../../../../arm-elf/lib/libg.a(impure.o)
 .comment       0x00000372       0x12 /usr/local/bin/../lib/gcc/arm-elf/4.1.0/../../../../arm-elf/lib/libg.a(mallocr.o)
 .comment       0x00000384       0x12 /usr/local/bin/../lib/gcc/arm-elf/4.1.0/../../../../arm-elf/lib/libg.a(memcmp.o)
 .comment       0x00000396       0x12 /usr/local/bin/../lib/gcc/arm-elf/4.1.0/../../../../arm-elf/lib/libg.a(memcpy.o)
 .comment       0x000003a8       0x12 /usr/local/bin/../lib/gcc/arm-elf/4.1.0/../../../../arm-elf/lib/libg.a(memset.o)
 .comment       0x000003ba       0x12 /usr/local/bin/../lib/gcc/arm-elf/4.1.0/../../../../arm-elf/lib/libg.a(mlock.o)
 .comment       0x000003cc       0x12 /usr/local/bin/../lib/gcc/arm-elf/4.1.0/../../../../arm-elf/lib/libg.a(printf.o)
 .comment       0x000003de       0x12 /usr/local/bin/../lib/gcc/arm-elf/4.1.0/../../../../arm-elf/lib/libg.a(putchar.o)
 .comment       0x000003f0       0x12 /usr/local/bin/../lib/gcc/arm-elf/4.1.0/../../../../arm-elf/lib/libg.a(puts.o)
 .comment       0x00000402       0x12 /usr/local/bin/../lib/gcc/arm-elf/4.1.0/../../../../arm-elf/lib/libg.a(stdio.o)
 .comment       0x00000414       0x12 /usr/local/bin/../lib/gcc/arm-elf/4.1.0/../../../../arm-elf/lib/libg.a(strcat.o)
 .comment       0x00000426       0x12 /usr/local/bin/../lib/gcc/arm-elf/4.1.0/../../../../arm-elf/lib/libg.a(strchr.o)
 .comment       0x00000438       0x12 /usr/local/bin/../lib/gcc/arm-elf/4.1.0/../../../../arm-elf/lib/libg.a(strcmp.o)
 .comment       0x0000044a       0x12 /usr/local/bin/../lib/gcc/arm-elf/4.1.0/../../../../arm-elf/lib/libg.a(strcpy.o)
 .comment       0x0000045c       0x12 /usr/local/bin/../lib/gcc/arm-elf/4.1.0/../../../../arm-elf/lib/libg.a(strlen.o)
 .comment       0x0000046e       0x12 /usr/local/bin/../lib/gcc/arm-elf/4.1.0/../../../../arm-elf/lib/libg.a(strncat.o)
 .comment       0x00000480       0x12 /usr/local/bin/../lib/gcc/arm-elf/4.1.0/../../../../arm-elf/lib/libg.a(strncmp.o)
 .comment       0x00000492       0x12 /usr/local/bin/../lib/gcc/arm-elf/4.1.0/../../../../arm-elf/lib/libg.a(strncpy.o)
 .comment       0x000004a4       0x12 /usr/local/bin/../lib/gcc/arm-elf/4.1.0/../../../../arm-elf/lib/libg.a(strrchr.o)
 .comment       0x000004b6       0x12 /usr/local/bin/../lib/gcc/arm-elf/4.1.0/../../../../arm-elf/lib/libg.a(strstr.o)
 .comment       0x000004c8       0x12 /usr/local/bin/../lib/gcc/arm-elf/4.1.0/../../../../arm-elf/lib/libg.a(strtok.o)
 .comment       0x000004da       0x12 /usr/local/bin/../lib/gcc/arm-elf/4.1.0/../../../../arm-elf/lib/libg.a(strtok_r.o)
 .comment       0x000004ec       0x12 /usr/local/bin/../lib/gcc/arm-elf/4.1.0/../../../../arm-elf/lib/libg.a(toupper.o)
 .comment       0x000004fe       0x12 /usr/local/bin/../lib/gcc/arm-elf/4.1.0/../../../../arm-elf/lib/libg.a(vfprintf.o)
 .comment       0x00000510       0x12 /usr/local/bin/../lib/gcc/arm-elf/4.1.0/../../../../arm-elf/lib/libg.a(wbuf.o)
 .comment       0x00000522       0x12 /usr/local/bin/../lib/gcc/arm-elf/4.1.0/../../../../arm-elf/lib/libg.a(wcrtomb.o)
 .comment       0x00000534       0x12 /usr/local/bin/../lib/gcc/arm-elf/4.1.0/../../../../arm-elf/lib/libg.a(wcsrtombs.o)
 .comment       0x00000546       0x12 /usr/local/bin/../lib/gcc/arm-elf/4.1.0/../../../../arm-elf/lib/libg.a(wctomb_r.o)
 .comment       0x00000558       0x12 /usr/local/bin/../lib/gcc/arm-elf/4.1.0/../../../../arm-elf/lib/libg.a(wsetup.o)
 .comment       0x0000056a       0x12 /usr/local/bin/../lib/gcc/arm-elf/4.1.0/../../../../arm-elf/lib/libg.a(ctype_.o)
 .comment       0x0000057c       0x12 /usr/local/bin/../lib/gcc/arm-elf/4.1.0/../../../../arm-elf/lib/libg.a(dtoa.o)
 .comment       0x0000058e       0x12 /usr/local/bin/../lib/gcc/arm-elf/4.1.0/../../../../arm-elf/lib/libg.a(fclose.o)
 .comment       0x000005a0       0x12 /usr/local/bin/../lib/gcc/arm-elf/4.1.0/../../../../arm-elf/lib/libg.a(freer.o)
 .comment       0x000005b2       0x12 /usr/local/bin/../lib/gcc/arm-elf/4.1.0/../../../../arm-elf/lib/libg.a(fvwrite.o)
 .comment       0x000005c4       0x12 /usr/local/bin/../lib/gcc/arm-elf/4.1.0/../../../../arm-elf/lib/libg.a(locale.o)
 .comment       0x000005d6       0x12 /usr/local/bin/../lib/gcc/arm-elf/4.1.0/../../../../arm-elf/lib/libg.a(makebuf.o)
 .comment       0x000005e8       0x12 /usr/local/bin/../lib/gcc/arm-elf/4.1.0/../../../../arm-elf/lib/libg.a(memchr.o)
 .comment       0x000005fa       0x12 /usr/local/bin/../lib/gcc/arm-elf/4.1.0/../../../../arm-elf/lib/libg.a(memmove.o)
 .comment       0x0000060c       0x12 /usr/local/bin/../lib/gcc/arm-elf/4.1.0/../../../../arm-elf/lib/libg.a(mprec.o)
 .comment       0x0000061e       0x12 /usr/local/bin/../lib/gcc/arm-elf/4.1.0/../../../../arm-elf/lib/libg.a(reallocr.o)
 .comment       0x00000630       0x12 /usr/local/bin/../lib/gcc/arm-elf/4.1.0/../../../../arm-elf/lib/libg.a(s_isinf.o)
 .comment       0x00000642       0x12 /usr/local/bin/../lib/gcc/arm-elf/4.1.0/../../../../arm-elf/lib/libg.a(s_isnan.o)
 .comment       0x00000654       0x12 /usr/local/bin/../lib/gcc/arm-elf/4.1.0/../../../../arm-elf/lib/libg.a(syscalls.o)
 .comment       0x00000666       0x12 /usr/local/bin/../lib/gcc/arm-elf/4.1.0/../../../../arm-elf/lib/libg.a(callocr.o)
 .comment       0x00000678       0x12 /usr/local/bin/../lib/gcc/arm-elf/4.1.0/libgcc.a(_eq_df.o)

.debug_ranges   0x00000000      0x810
 .debug_ranges  0x00000000       0x98 ./dhcp/dhcpc.o
 .debug_ranges  0x00000098      0x160 ./httpd/httpd.o
 .debug_ranges  0x000001f8       0x18 ./cli/cli.o
 .debug_ranges  0x00000210       0x30 ../uip/psock.o
 .debug_ranges  0x00000240       0x18 /usr/local/bin/../lib/gcc/arm-elf/4.1.0/libgcc.a(_addsub_df.o)
 .debug_ranges  0x00000258       0x68 /usr/local/bin/../lib/gcc/arm-elf/4.1.0/libgcc.a(_mul_df.o)
 .debug_ranges  0x000002c0       0x58 /usr/local/bin/../lib/gcc/arm-elf/4.1.0/libgcc.a(_div_df.o)
 .debug_ranges  0x00000318       0x38 /usr/local/bin/../lib/gcc/arm-elf/4.1.0/libgcc.a(_pack_df.o)
 .debug_ranges  0x00000350       0x40 /usr/local/bin/../lib/gcc/arm-elf/4.1.0/../../../../arm-elf/lib/libg.a(fwalk.o)
 .debug_ranges  0x00000390       0x50 /usr/local/bin/../lib/gcc/arm-elf/4.1.0/../../../../arm-elf/lib/libg.a(mallocr.o)
 .debug_ranges  0x000003e0      0x140 /usr/local/bin/../lib/gcc/arm-elf/4.1.0/../../../../arm-elf/lib/libg.a(vfprintf.o)
 .debug_ranges  0x00000520       0x28 /usr/local/bin/../lib/gcc/arm-elf/4.1.0/../../../../arm-elf/lib/libg.a(wcsrtombs.o)
 .debug_ranges  0x00000548       0x48 /usr/local/bin/../lib/gcc/arm-elf/4.1.0/../../../../arm-elf/lib/libg.a(wctomb_r.o)
 .debug_ranges  0x00000590       0x18 /usr/local/bin/../lib/gcc/arm-elf/4.1.0/../../../../arm-elf/lib/libg.a(fvwrite.o)
 .debug_ranges  0x000005a8      0x118 /usr/local/bin/../lib/gcc/arm-elf/4.1.0/../../../../arm-elf/lib/libg.a(reallocr.o)
 .debug_ranges  0x000006c0      0x118 /usr/local/bin/../lib/gcc/arm-elf/4.1.0/../../../../arm-elf/lib/libg.a(syscalls.o)
 .debug_ranges  0x000007d8       0x38 /usr/local/bin/../lib/gcc/arm-elf/4.1.0/../../../../arm-elf/lib/libg.a(callocr.o)
