Archive member included because of file (symbol)

/usr/local/bin/../lib/gcc/arm-elf/4.1.0/libgcc.a(_udivsi3.o)
                              ./uart/uart.o (__udivsi3)
/usr/local/bin/../lib/gcc/arm-elf/4.1.0/libgcc.a(_umodsi3.o)
                              ./mprintf/mprintf.o (__umodsi3)
/usr/local/bin/../lib/gcc/arm-elf/4.1.0/libgcc.a(_dvmd_tls.o)
                              /usr/local/bin/../lib/gcc/arm-elf/4.1.0/libgcc.a(_udivsi3.o) (__div0)
/usr/local/bin/../lib/gcc/arm-elf/4.1.0/libgcc.a(_addsub_df.o)
                              ./mprintf/mprintf.o (__subdf3)
/usr/local/bin/../lib/gcc/arm-elf/4.1.0/libgcc.a(_mul_df.o)
                              ./mprintf/mprintf.o (__muldf3)
/usr/local/bin/../lib/gcc/arm-elf/4.1.0/libgcc.a(_div_df.o)
                              ./mprintf/mprintf.o (__divdf3)
/usr/local/bin/../lib/gcc/arm-elf/4.1.0/libgcc.a(_ne_df.o)
                              ./mprintf/mprintf.o (__nedf2)
/usr/local/bin/../lib/gcc/arm-elf/4.1.0/libgcc.a(_gt_df.o)
                              ./mprintf/mprintf.o (__gtdf2)
/usr/local/bin/../lib/gcc/arm-elf/4.1.0/libgcc.a(_ge_df.o)
                              ./mprintf/mprintf.o (__gedf2)
/usr/local/bin/../lib/gcc/arm-elf/4.1.0/libgcc.a(_lt_df.o)
                              ./mprintf/mprintf.o (__ltdf2)
/usr/local/bin/../lib/gcc/arm-elf/4.1.0/libgcc.a(_si_to_df.o)
                              ./mprintf/mprintf.o (__floatsidf)
/usr/local/bin/../lib/gcc/arm-elf/4.1.0/libgcc.a(_df_to_si.o)
                              ./mprintf/mprintf.o (__fixdfsi)
/usr/local/bin/../lib/gcc/arm-elf/4.1.0/libgcc.a(_thenan_df.o)
                              /usr/local/bin/../lib/gcc/arm-elf/4.1.0/libgcc.a(_addsub_df.o) (__thenan_df)
/usr/local/bin/../lib/gcc/arm-elf/4.1.0/libgcc.a(_pack_df.o)
                              /usr/local/bin/../lib/gcc/arm-elf/4.1.0/libgcc.a(_addsub_df.o) (__pack_d)
/usr/local/bin/../lib/gcc/arm-elf/4.1.0/libgcc.a(_unpack_df.o)
                              /usr/local/bin/../lib/gcc/arm-elf/4.1.0/libgcc.a(_addsub_df.o) (__unpack_d)
/usr/local/bin/../lib/gcc/arm-elf/4.1.0/libgcc.a(_fpcmp_parts_df.o)
                              /usr/local/bin/../lib/gcc/arm-elf/4.1.0/libgcc.a(_ne_df.o) (__fpcmp_parts_d)
/usr/local/bin/../lib/gcc/arm-elf/4.1.0/../../../../arm-elf/lib/libg.a(errno.o)
                              syscalls.o (__errno)
/usr/local/bin/../lib/gcc/arm-elf/4.1.0/../../../../arm-elf/lib/libg.a(impure.o)
                              /usr/local/bin/../lib/gcc/arm-elf/4.1.0/../../../../arm-elf/lib/libg.a(errno.o) (_impure_ptr)
/usr/local/bin/../lib/gcc/arm-elf/4.1.0/../../../../arm-elf/lib/libg.a(memcpy.o)
                              ./httpd/httpd.o (memcpy)
/usr/local/bin/../lib/gcc/arm-elf/4.1.0/../../../../arm-elf/lib/libg.a(memset.o)
                              main.o (memset)
/usr/local/bin/../lib/gcc/arm-elf/4.1.0/../../../../arm-elf/lib/libg.a(printf.o)
                              ./httpd/httpd-cgi.o (printf)
/usr/local/bin/../lib/gcc/arm-elf/4.1.0/../../../../arm-elf/lib/libg.a(puts.o)
                              ./httpd/httpd-cgi.o (puts)
/usr/local/bin/../lib/gcc/arm-elf/4.1.0/../../../../arm-elf/lib/libg.a(strcat.o)
                              ./cli/cli.o (strcat)
/usr/local/bin/../lib/gcc/arm-elf/4.1.0/../../../../arm-elf/lib/libg.a(strchr.o)
                              ./httpd/httpd.o (strchr)
/usr/local/bin/../lib/gcc/arm-elf/4.1.0/../../../../arm-elf/lib/libg.a(strcmp.o)
                              ./sockets/cli_webSock.o (strcmp)
/usr/local/bin/../lib/gcc/arm-elf/4.1.0/../../../../arm-elf/lib/libg.a(strcpy.o)
                              ./httpd/httpd.o (strcpy)
/usr/local/bin/../lib/gcc/arm-elf/4.1.0/../../../../arm-elf/lib/libg.a(strlen.o)
                              ./httpd/httpd.o (strlen)
/usr/local/bin/../lib/gcc/arm-elf/4.1.0/../../../../arm-elf/lib/libg.a(strncat.o)
                              ./cli/cli.o (strncat)
/usr/local/bin/../lib/gcc/arm-elf/4.1.0/../../../../arm-elf/lib/libg.a(strncmp.o)
                              ./httpd/httpd.o (strncmp)
/usr/local/bin/../lib/gcc/arm-elf/4.1.0/../../../../arm-elf/lib/libg.a(strncpy.o)
                              ./httpd/httpd.o (strncpy)
/usr/local/bin/../lib/gcc/arm-elf/4.1.0/../../../../arm-elf/lib/libg.a(strrchr.o)
                              ./httpd/httpd.o (strrchr)
/usr/local/bin/../lib/gcc/arm-elf/4.1.0/../../../../arm-elf/lib/libg.a(strstr.o)
                              ./httpd/httpd-cgi.o (strstr)
/usr/local/bin/../lib/gcc/arm-elf/4.1.0/../../../../arm-elf/lib/libg.a(strtok.o)
                              ./cli/cli.o (strtok)
/usr/local/bin/../lib/gcc/arm-elf/4.1.0/../../../../arm-elf/lib/libg.a(strtok_r.o)
                              /usr/local/bin/../lib/gcc/arm-elf/4.1.0/../../../../arm-elf/lib/libg.a(strtok.o) (__strtok_r)
/usr/local/bin/../lib/gcc/arm-elf/4.1.0/../../../../arm-elf/lib/libg.a(toupper.o)
                              ./cli/cli.o (toupper)
/usr/local/bin/../lib/gcc/arm-elf/4.1.0/../../../../arm-elf/lib/libg.a(vfprintf.o)
                              /usr/local/bin/../lib/gcc/arm-elf/4.1.0/../../../../arm-elf/lib/libg.a(printf.o) (_vfprintf_r)
/usr/local/bin/../lib/gcc/arm-elf/4.1.0/../../../../arm-elf/lib/libg.a(wcrtomb.o)
                              /usr/local/bin/../lib/gcc/arm-elf/4.1.0/../../../../arm-elf/lib/libg.a(vfprintf.o) (_wcrtomb_r)
/usr/local/bin/../lib/gcc/arm-elf/4.1.0/../../../../arm-elf/lib/libg.a(wcsrtombs.o)
                              /usr/local/bin/../lib/gcc/arm-elf/4.1.0/../../../../arm-elf/lib/libg.a(vfprintf.o) (_wcsrtombs_r)
/usr/local/bin/../lib/gcc/arm-elf/4.1.0/../../../../arm-elf/lib/libg.a(wctomb_r.o)
                              /usr/local/bin/../lib/gcc/arm-elf/4.1.0/../../../../arm-elf/lib/libg.a(wcrtomb.o) (_wctomb_r)
/usr/local/bin/../lib/gcc/arm-elf/4.1.0/../../../../arm-elf/lib/libg.a(wsetup.o)
                              /usr/local/bin/../lib/gcc/arm-elf/4.1.0/../../../../arm-elf/lib/libg.a(vfprintf.o) (__swsetup)
/usr/local/bin/../lib/gcc/arm-elf/4.1.0/../../../../arm-elf/lib/libg.a(ctype_.o)
                              /usr/local/bin/../lib/gcc/arm-elf/4.1.0/../../../../arm-elf/lib/libg.a(toupper.o) (__ctype_ptr)
/usr/local/bin/../lib/gcc/arm-elf/4.1.0/../../../../arm-elf/lib/libg.a(dtoa.o)
                              /usr/local/bin/../lib/gcc/arm-elf/4.1.0/../../../../arm-elf/lib/libg.a(vfprintf.o) (_dtoa_r)
/usr/local/bin/../lib/gcc/arm-elf/4.1.0/../../../../arm-elf/lib/libg.a(fflush.o)
                              /usr/local/bin/../lib/gcc/arm-elf/4.1.0/../../../../arm-elf/lib/libg.a(vfprintf.o) (fflush)
/usr/local/bin/../lib/gcc/arm-elf/4.1.0/../../../../arm-elf/lib/libg.a(findfp.o)
                              /usr/local/bin/../lib/gcc/arm-elf/4.1.0/../../../../arm-elf/lib/libg.a(vfprintf.o) (__sinit)
/usr/local/bin/../lib/gcc/arm-elf/4.1.0/../../../../arm-elf/lib/libg.a(freer.o)
                              /usr/local/bin/../lib/gcc/arm-elf/4.1.0/../../../../arm-elf/lib/libg.a(vfprintf.o) (_free_r)
/usr/local/bin/../lib/gcc/arm-elf/4.1.0/../../../../arm-elf/lib/libg.a(fvwrite.o)
                              /usr/local/bin/../lib/gcc/arm-elf/4.1.0/../../../../arm-elf/lib/libg.a(puts.o) (__sfvwrite)
/usr/local/bin/../lib/gcc/arm-elf/4.1.0/../../../../arm-elf/lib/libg.a(fwalk.o)
                              /usr/local/bin/../lib/gcc/arm-elf/4.1.0/../../../../arm-elf/lib/libg.a(fflush.o) (_fwalk)
/usr/local/bin/../lib/gcc/arm-elf/4.1.0/../../../../arm-elf/lib/libg.a(locale.o)
                              /usr/local/bin/../lib/gcc/arm-elf/4.1.0/../../../../arm-elf/lib/libg.a(vfprintf.o) (localeconv)
/usr/local/bin/../lib/gcc/arm-elf/4.1.0/../../../../arm-elf/lib/libg.a(makebuf.o)
                              /usr/local/bin/../lib/gcc/arm-elf/4.1.0/../../../../arm-elf/lib/libg.a(wsetup.o) (__smakebuf)
/usr/local/bin/../lib/gcc/arm-elf/4.1.0/../../../../arm-elf/lib/libg.a(mallocr.o)
                              /usr/local/bin/../lib/gcc/arm-elf/4.1.0/../../../../arm-elf/lib/libg.a(vfprintf.o) (_malloc_r)
/usr/local/bin/../lib/gcc/arm-elf/4.1.0/../../../../arm-elf/lib/libg.a(memchr.o)
                              /usr/local/bin/../lib/gcc/arm-elf/4.1.0/../../../../arm-elf/lib/libg.a(vfprintf.o) (memchr)
/usr/local/bin/../lib/gcc/arm-elf/4.1.0/../../../../arm-elf/lib/libg.a(memmove.o)
                              /usr/local/bin/../lib/gcc/arm-elf/4.1.0/../../../../arm-elf/lib/libg.a(fvwrite.o) (memmove)
/usr/local/bin/../lib/gcc/arm-elf/4.1.0/../../../../arm-elf/lib/libg.a(mlock.o)
                              /usr/local/bin/../lib/gcc/arm-elf/4.1.0/../../../../arm-elf/lib/libg.a(freer.o) (__malloc_lock)
/usr/local/bin/../lib/gcc/arm-elf/4.1.0/../../../../arm-elf/lib/libg.a(mprec.o)
                              /usr/local/bin/../lib/gcc/arm-elf/4.1.0/../../../../arm-elf/lib/libg.a(dtoa.o) (_Bfree)
/usr/local/bin/../lib/gcc/arm-elf/4.1.0/../../../../arm-elf/lib/libg.a(reallocr.o)
                              /usr/local/bin/../lib/gcc/arm-elf/4.1.0/../../../../arm-elf/lib/libg.a(fvwrite.o) (_realloc_r)
/usr/local/bin/../lib/gcc/arm-elf/4.1.0/../../../../arm-elf/lib/libg.a(s_isinf.o)
                              /usr/local/bin/../lib/gcc/arm-elf/4.1.0/../../../../arm-elf/lib/libg.a(vfprintf.o) (isinf)
/usr/local/bin/../lib/gcc/arm-elf/4.1.0/../../../../arm-elf/lib/libg.a(s_isnan.o)
                              /usr/local/bin/../lib/gcc/arm-elf/4.1.0/../../../../arm-elf/lib/libg.a(vfprintf.o) (isnan)
/usr/local/bin/../lib/gcc/arm-elf/4.1.0/../../../../arm-elf/lib/libg.a(stdio.o)
                              /usr/local/bin/../lib/gcc/arm-elf/4.1.0/../../../../arm-elf/lib/libg.a(findfp.o) (__sclose)
/usr/local/bin/../lib/gcc/arm-elf/4.1.0/../../../../arm-elf/lib/libg.a(syscalls.o)
                              /usr/local/bin/../lib/gcc/arm-elf/4.1.0/../../../../arm-elf/lib/libg.a(makebuf.o) (isatty)
/usr/local/bin/../lib/gcc/arm-elf/4.1.0/../../../../arm-elf/lib/libg.a(callocr.o)
                              /usr/local/bin/../lib/gcc/arm-elf/4.1.0/../../../../arm-elf/lib/libg.a(mprec.o) (_calloc_r)
/usr/local/bin/../lib/gcc/arm-elf/4.1.0/../../../../arm-elf/lib/libg.a(fclose.o)
                              /usr/local/bin/../lib/gcc/arm-elf/4.1.0/../../../../arm-elf/lib/libg.a(findfp.o) (fclose)
/usr/local/bin/../lib/gcc/arm-elf/4.1.0/libgcc.a(_eq_df.o)
                              /usr/local/bin/../lib/gcc/arm-elf/4.1.0/../../../../arm-elf/lib/libg.a(vfprintf.o) (__eqdf2)

Allocating common symbols
Common symbol       size              file

arp_timer           0x8               ./eth/eth.o
uipIP_ADDR2         0x4               main.o
I2CReadLength       0x4               ./i2c/i2c.o
so_cli              0x28              ./sockets/cli_webSock.o
I2CSlaveBuffer      0x20              ./i2c/i2c.o
uip_len             0x2               ../uip/uip.o
uipIP_ADDR3         0x4               main.o
uip_sappdata        0x4               ../uip/uip.o
uip_acc32           0x4               ../uip/uip.o
setpoint            0x1               main.o
uip_flags           0x1               ../uip/uip.o
periodic_timer      0x8               ./eth/eth.o
ac_auto_on          0x1               main.o
temp1               0x1               main.o
I2CMode             0x4               ./i2c/i2c.o
temp0               0x1               main.o
I2CMasterBuffer     0x20              ./i2c/i2c.o
I2CCmd              0x4               ./i2c/i2c.o
uipIP_ADDR1         0x4               main.o
uip_appdata         0x4               ../uip/uip.o
uip_conn            0x4               ../uip/uip.o
uip_conns           0x1540            ../uip/uip.o
localtime           0x20              main.o
ac_modo             0x1               main.o
I2CWriteLength      0x4               ./i2c/i2c.o
gp_buf              0x4               ./mprintf/mprintf.o
uip_listenports     0x50              ../uip/uip.o
uip_draddr          0x4               ../uip/uip.o
uip_stat            0x30              ../uip/uip.o
vectorAddrIPv4      0x10              main.o
global_chat_flag    0x4               ./sockets/cli_webSock.o
uip_netmask         0x4               ../uip/uip.o
uip_hostaddr        0x4               ../uip/uip.o
uip_buf             0x602             ../uip/uip.o
uip_slen            0x2               ../uip/uip.o
uipIP_ADDR0         0x4               main.o

Memory Configuration

Name             Origin             Length             Attributes
flash            0x00000000         0x00080000
ram              0x40000000         0x00008000
usbram           0x7fd00000         0x00002000
ethram           0x7fe00000         0x00004000
*default*        0x00000000         0xffffffff

Linker script and memory map

LOAD main.o
LOAD syscalls.o
LOAD ./uart/uart.o
LOAD ./mprintf/mprintf.o
LOAD ./timer/timer.o
LOAD ./rtc/rtc.o
LOAD ./i2c/i2c.o
LOAD ./i2c/i2c_isr.o
LOAD ./mac/emac.o
LOAD ./mac/emac_isr.o
LOAD ./httpd/httpd.o
LOAD ./httpd/httpd-cgi.o
LOAD ./httpd/httpd-fs.o
LOAD ./httpd/http-strings.o
LOAD ./sockets/cli_webSock.o
LOAD ./eth/eth.o
LOAD ./lcd/lcd.o
LOAD ./cli/cli.o
LOAD ./cli/cli_func.o
LOAD ./cli/debug.o
LOAD ./telnetd/telnetd.o
LOAD ./memb/memb.o
LOAD ./telnetd/shell.o
LOAD ../uip/uip_arp.o
LOAD ../uip/psock.o
LOAD ../uip/timer.o
LOAD ../uip/uip.o
LOAD /tmp/ccofrgum.o
START GROUP
LOAD /usr/local/bin/../lib/gcc/arm-elf/4.1.0/libgcc.a
LOAD /usr/local/bin/../lib/gcc/arm-elf/4.1.0/../../../../arm-elf/lib/libg.a
LOAD /usr/local/bin/../lib/gcc/arm-elf/4.1.0/../../../../arm-elf/lib/libc.a
END GROUP
                0x40007ffc                __stack_end__ = 0x40007ffc
                0x00000000                . = 0x0

startup         0x00000000       0x48
 *(.startup)
 .startup       0x00000000       0x48 /tmp/ccofrgum.o

prog            0x00000048    0x2a028
 *(.text)
 .text          0x00000048      0x614 main.o
                0x00000088                PLLInit
                0x000002cc                read_temp
                0x0000022c                SWI_Routine
                0x00000068                DesligaAC
                0x0000028c                DABT_Routine
                0x00000204                FIQ_Routine
                0x00000250                PABT_Routine
                0x000001e0                UNDF_Routine
                0x00000048                LigaAC
                0x00000394                main
                0x00000154                GPIOInit
 .text          0x0000065c      0x108 syscalls.o
                0x0000066c                _isatty_r
                0x0000065c                _lseek_r
                0x00000674                _fstat_r
                0x0000069c                _sbrk_r
                0x00000700                _read_r
                0x00000664                _close_r
                0x00000718                _write_r
 .text          0x00000764      0x420 ./uart/uart.o
                0x00000990                UARTWaitForByte
                0x00000764                UARTInit
                0x00000b50                UARTTransmitString
                0x00000ab8                UARTTransmitByte
                0x00000a3c                UARTReceiveByte
                0x00000914                UARTIsDataReady
 .text          0x00000b84      0xe00 ./mprintf/mprintf.o
                0x000010b4                va_printf
                0x00000e8c                dprint
                0x00001958                mprintf
                0x00000c54                atod
                0x0000190c                sprintf
                0x000018f4                sputchar
                0x00000bd4                atoi
                0x00000b84                u2str
 .text          0x00001984      0x1b0 ./timer/timer.o
                0x00001a08                delayMs
                0x00001984                T0Init
                0x00001a9c                timeoutMs
                0x000019d0                T0Stop
                0x00001a50                delayUs
                0x000019f8                T0Get
                0x00001b0c                delay_1us
                0x000019e4                T0Start
 .text          0x00001b34      0x1a4 ./rtc/rtc.o
                0x00001c24                RTCSetAlarm
                0x00001bd0                RTCSetTime
                0x00001b80                RTCStart
                0x00001cc8                RTCSetAlarmMask
                0x00001bb8                RTC_CTCReset
                0x00001c78                RTCGetTime
                0x00001ba0                RTCStop
                0x00001b34                RTCInit
 .text          0x00001cd8      0x198 ./i2c/i2c.o
                0x00001e10                I2CEngine
                0x00001cd8                I2CStart
                0x00001d34                I2CStop
                0x00001d68                I2CInit
 .text          0x00001e70      0x438 ./i2c/i2c_isr.o
                0x00001e70                I2C0MasterHandler
 .text          0x000022a8      0x780 ./mac/emac.o
                0x000025fc                WriteFrame_EMAC
                0x000024e0                StartReadFrame
                0x00002428                ReadFrame_EMAC
                0x00002578                uiGetEMACRxData
                0x000022a8                write_PHY
                0x00002468                CopyFromFrame_EMAC
                0x000022ec                read_PHY
                0x00002528                EndReadFrame
                0x00002440                ReadFrameBE_EMAC
                0x000025f4                Rdy4Tx
                0x00002358                rx_descr_init
                0x000024b0                DummyReadFrame_EMAC
                0x00002614                CopyToFrame_EMAC
                0x000023c4                tx_descr_init
                0x0000264c                DoSend_EMAC
                0x00002698                Init_EMAC
                0x00002558                CheckFrameReceived
                0x000025c4                RequestSend
 .text          0x00002a28       0x34 ./mac/emac_isr.o
                0x00002a28                EMAC_ISR_Handler
 .text          0x00002a5c      0x960 ./httpd/httpd.o
                0x00002a5c                httpd_init
                0x000032a8                httpd_appcall
 .text          0x000033bc      0x438 ./httpd/httpd-cgi.o
                0x000033cc                cgiProcessFormInput
                0x00003570                httpd_cgi
 .text          0x000037f4      0x174 ./httpd/httpd-fs.o
                0x000038e4                httpd_fs_init
                0x00003864                httpd_fs_open
                0x00003908                httpd_fs_count
 .text          0x00003968      0x2a8 ./sockets/cli_webSock.o
                0x0000396c                chat_process_appcall
                0x00003ba8                chat_connect_port
                0x00003bc8                chat_process
                0x00003968                sai_sock
 .text          0x00003c10      0x388 ./eth/eth.o
                0x00003dcc                clock_start
                0x00003da8                clock_init
                0x00003db8                clock_reset
                0x00003dd8                ethernet_init
                0x00003c5c                ethernet_task
                0x00003d9c                clock_time
 .text          0x00003f98      0x160 ./lcd/lcd.o
                0x000040b8                lcd_clr
                0x00003f98                lcd_putc
                0x00004094                lcd_goto
                0x00003fd8                lcd_string
                0x000040c8                lcd_string_old
                0x00004044                init_lcd
                0x00004004                lcd_command
 .text          0x000040f8      0x654 ./cli/cli.o
                0x000044c0                CLI_Builder
                0x0000412c                UARTTakeString
                0x000042c0                ExecCommand
                0x00004320                mount_token
                0x000040f8                get_newIp
                0x000041b0                cmdExec
 .text          0x0000474c      0x5e0 ./cli/cli_func.o
                0x00004ccc                do_init
                0x000049b4                set_IP
                0x00004888                do_lcd
                0x00004814                writeDataLcd
                0x00004c24                do_chat
                0x000047b4                get_IP
                0x0000475c                do_get_temperature
                0x0000474c                out_data
                0x00004ab8                do_IP
 .text          0x00004d2c      0x614 ./telnetd/telnetd.o
                0x00005314                shell_prompt
                0x00005260                telnetd_init
                0x00004d2c                shell_quit
                0x00005280                shell_output
                0x00004e90                telnetd_appcall
 .text          0x00005340      0x124 ./memb/memb.o
                0x00005340                memb_alloc
                0x000053b0                memb_free
                0x00005430                memb_init
 .text          0x00005464       0x9c ./telnetd/shell.o
                0x000054b8                shell_start
                0x000054e0                shell_init
                0x00005464                shell_input
 .text          0x00005500      0x6f0 ../uip/uip_arp.o
                0x000058c4                uip_arp_out
                0x000056a8                uip_arp_arpin
                0x00005b14                uip_arp_timer
                0x00005ba0                uip_arp_init
                0x0000583c                uip_arp_ipin
 .text          0x00005bf0      0x680 ../uip/psock.o
                0x000060cc                psock_generator_send
                0x00005ca0                psock_newdata
                0x00005c84                psock_datalen
                0x00006190                psock_send
                0x00005ea0                psock_readbuf
                0x00005e68                psock_init
                0x00005cdc                psock_readto
 .text          0x00006270       0x64 ../uip/timer.o
                0x00006280                timer_expired
                0x000062bc                timer_set
                0x000062a8                timer_restart
                0x00006270                timer_reset
 .text          0x000062d4     0x18f4 ../uip/uip.o
                0x000064a4                uip_unlisten
                0x000062e4                uip_add32
                0x000068ac                uip_process
                0x00006814                uip_ipchksum
                0x00006514                uip_listen
                0x00006804                uip_tcpchksum
                0x000065f4                uip_connect
                0x00006844                uip_chksum
                0x000065dc                htons
                0x00006424                uip_init
                0x000062d4                uip_setipid
                0x000067f4                uip_udpchksum
                0x00006868                uip_send
 .text          0x00007bc8       0xc4 /tmp/ccofrgum.o
                0x00007bc8                start
                0x00007c70                endless_loop
 .text          0x00007c8c      0x110 /usr/local/bin/../lib/gcc/arm-elf/4.1.0/libgcc.a(_udivsi3.o)
                0x00007c8c                __udivsi3
                0x00007c8c                __aeabi_uidiv
                0x00007d84                __aeabi_uidivmod
 .text          0x00007d9c       0xcc /usr/local/bin/../lib/gcc/arm-elf/4.1.0/libgcc.a(_umodsi3.o)
                0x00007d9c                __umodsi3
 .text          0x00007e68        0x4 /usr/local/bin/../lib/gcc/arm-elf/4.1.0/libgcc.a(_dvmd_tls.o)
                0x00007e68                __aeabi_ldiv0
                0x00007e68                __div0
                0x00007e68                __aeabi_idiv0
 .text          0x00007e6c      0x42c /usr/local/bin/../lib/gcc/arm-elf/4.1.0/libgcc.a(_addsub_df.o)
                0x00008244                __adddf3
                0x000081e4                __subdf3
 .text          0x00008298      0x390 /usr/local/bin/../lib/gcc/arm-elf/4.1.0/libgcc.a(_mul_df.o)
                0x000082e0                __muldf3
 .text          0x00008628      0x258 /usr/local/bin/../lib/gcc/arm-elf/4.1.0/libgcc.a(_div_df.o)
                0x00008670                __divdf3
 .text          0x00008880       0x88 /usr/local/bin/../lib/gcc/arm-elf/4.1.0/libgcc.a(_ne_df.o)
                0x00008894                __nedf2
 .text          0x00008908       0x88 /usr/local/bin/../lib/gcc/arm-elf/4.1.0/libgcc.a(_gt_df.o)
                0x0000891c                __gtdf2
 .text          0x00008990       0x88 /usr/local/bin/../lib/gcc/arm-elf/4.1.0/libgcc.a(_ge_df.o)
                0x000089a4                __gedf2
 .text          0x00008a18       0x88 /usr/local/bin/../lib/gcc/arm-elf/4.1.0/libgcc.a(_lt_df.o)
                0x00008a2c                __ltdf2
 .text          0x00008aa0       0xbc /usr/local/bin/../lib/gcc/arm-elf/4.1.0/libgcc.a(_si_to_df.o)
                0x00008aa0                __floatsidf
 .text          0x00008b5c       0xf8 /usr/local/bin/../lib/gcc/arm-elf/4.1.0/libgcc.a(_df_to_si.o)
                0x00008b98                __fixdfsi
 .text          0x00008c54      0x330 /usr/local/bin/../lib/gcc/arm-elf/4.1.0/libgcc.a(_pack_df.o)
                0x00008c90                __pack_d
 .text          0x00008f84      0x124 /usr/local/bin/../lib/gcc/arm-elf/4.1.0/libgcc.a(_unpack_df.o)
                0x00008f84                __unpack_d
 .text          0x000090a8      0x180 /usr/local/bin/../lib/gcc/arm-elf/4.1.0/libgcc.a(_fpcmp_parts_df.o)
                0x000090e4                __fpcmp_parts_d
 .text          0x00009228       0x10 /usr/local/bin/../lib/gcc/arm-elf/4.1.0/../../../../arm-elf/lib/libg.a(errno.o)
                0x00009228                __errno
 .text          0x00009238       0xa0 /usr/local/bin/../lib/gcc/arm-elf/4.1.0/../../../../arm-elf/lib/libg.a(memcpy.o)
                0x00009238                memcpy
 .text          0x000092d8       0x98 /usr/local/bin/../lib/gcc/arm-elf/4.1.0/../../../../arm-elf/lib/libg.a(memset.o)
                0x000092d8                memset
 .text          0x00009370       0x74 /usr/local/bin/../lib/gcc/arm-elf/4.1.0/../../../../arm-elf/lib/libg.a(printf.o)
                0x00009370                printf
                0x000093b0                _printf_r
 .text          0x000093e4       0x80 /usr/local/bin/../lib/gcc/arm-elf/4.1.0/../../../../arm-elf/lib/libg.a(puts.o)
                0x000093e4                _puts_r
                0x00009450                puts
 .text          0x00009464       0x94 /usr/local/bin/../lib/gcc/arm-elf/4.1.0/../../../../arm-elf/lib/libg.a(strcat.o)
                0x00009464                strcat
 .text          0x000094f8      0x10c /usr/local/bin/../lib/gcc/arm-elf/4.1.0/../../../../arm-elf/lib/libg.a(strchr.o)
                0x000094f8                strchr
 .text          0x00009604       0xd0 /usr/local/bin/../lib/gcc/arm-elf/4.1.0/../../../../arm-elf/lib/libg.a(strcmp.o)
                0x00009604                strcmp
 .text          0x000096d4       0x9c /usr/local/bin/../lib/gcc/arm-elf/4.1.0/../../../../arm-elf/lib/libg.a(strcpy.o)
                0x000096d4                strcpy
 .text          0x00009770       0x90 /usr/local/bin/../lib/gcc/arm-elf/4.1.0/../../../../arm-elf/lib/libg.a(strlen.o)
                0x00009770                strlen
 .text          0x00009800       0xcc /usr/local/bin/../lib/gcc/arm-elf/4.1.0/../../../../arm-elf/lib/libg.a(strncat.o)
                0x00009800                strncat
 .text          0x000098cc      0x14c /usr/local/bin/../lib/gcc/arm-elf/4.1.0/../../../../arm-elf/lib/libg.a(strncmp.o)
                0x000098cc                strncmp
 .text          0x00009a18      0x114 /usr/local/bin/../lib/gcc/arm-elf/4.1.0/../../../../arm-elf/lib/libg.a(strncpy.o)
                0x00009a18                strncpy
 .text          0x00009b2c       0x40 /usr/local/bin/../lib/gcc/arm-elf/4.1.0/../../../../arm-elf/lib/libg.a(strrchr.o)
                0x00009b2c                strrchr
 .text          0x00009b6c       0x54 /usr/local/bin/../lib/gcc/arm-elf/4.1.0/../../../../arm-elf/lib/libg.a(strstr.o)
                0x00009b6c                strstr
 .text          0x00009bc0       0x18 /usr/local/bin/../lib/gcc/arm-elf/4.1.0/../../../../arm-elf/lib/libg.a(strtok.o)
                0x00009bc0                strtok
 .text          0x00009bd8       0xcc /usr/local/bin/../lib/gcc/arm-elf/4.1.0/../../../../arm-elf/lib/libg.a(strtok_r.o)
                0x00009c9c                strtok_r
                0x00009bd8                __strtok_r
 .text          0x00009ca4       0x1c /usr/local/bin/../lib/gcc/arm-elf/4.1.0/../../../../arm-elf/lib/libg.a(toupper.o)
                0x00009ca4                toupper
 .text          0x00009cc0     0x1f88 /usr/local/bin/../lib/gcc/arm-elf/4.1.0/../../../../arm-elf/lib/libg.a(vfprintf.o)
                0x00009d00                _vfprintf_r
                0x0000bc1c                vfprintf
 .text          0x0000bc48       0x80 /usr/local/bin/../lib/gcc/arm-elf/4.1.0/../../../../arm-elf/lib/libg.a(wcrtomb.o)
                0x0000bc48                _wcrtomb_r
                0x0000bc9c                wcrtomb
 .text          0x0000bcc8      0x178 /usr/local/bin/../lib/gcc/arm-elf/4.1.0/../../../../arm-elf/lib/libg.a(wcsrtombs.o)
                0x0000bcc8                _wcsrtombs_r
                0x0000be00                wcsrtombs
 .text          0x0000be40      0x420 /usr/local/bin/../lib/gcc/arm-elf/4.1.0/../../../../arm-elf/lib/libg.a(wctomb_r.o)
                0x0000be40                _wctomb_r
 .text          0x0000c260       0xfc /usr/local/bin/../lib/gcc/arm-elf/4.1.0/../../../../arm-elf/lib/libg.a(wsetup.o)
                0x0000c260                __swsetup
 .text          0x0000c35c     0x164c /usr/local/bin/../lib/gcc/arm-elf/4.1.0/../../../../arm-elf/lib/libg.a(dtoa.o)
                0x0000c560                _dtoa_r
 .text          0x0000d9a8       0xe0 /usr/local/bin/../lib/gcc/arm-elf/4.1.0/../../../../arm-elf/lib/libg.a(fflush.o)
                0x0000d9a8                fflush
 .text          0x0000da88      0x27c /usr/local/bin/../lib/gcc/arm-elf/4.1.0/../../../../arm-elf/lib/libg.a(findfp.o)
                0x0000daf4                __sinit
                0x0000dbc8                __sfmoreglue
                0x0000dbb8                _cleanup
                0x0000dbac                _cleanup_r
                0x0000db94                __fp_lock_all
                0x0000dae4                __sfp_lock_acquire
                0x0000dc18                __sfp
                0x0000daf0                __sinit_lock_release
                0x0000db7c                __fp_unlock_all
                0x0000dae8                __sfp_lock_release
                0x0000daec                __sinit_lock_acquire
 .text          0x0000dd04      0x39c /usr/local/bin/../lib/gcc/arm-elf/4.1.0/../../../../arm-elf/lib/libg.a(freer.o)
                0x0000de00                _free_r
                0x0000dd04                _malloc_trim_r
 .text          0x0000e0a0      0x3f8 /usr/local/bin/../lib/gcc/arm-elf/4.1.0/../../../../arm-elf/lib/libg.a(fvwrite.o)
                0x0000e0a0                __sfvwrite
 .text          0x0000e498      0x10c /usr/local/bin/../lib/gcc/arm-elf/4.1.0/../../../../arm-elf/lib/libg.a(fwalk.o)
                0x0000e520                _fwalk
                0x0000e498                _fwalk_reent
 .text          0x0000e5a4       0xac /usr/local/bin/../lib/gcc/arm-elf/4.1.0/../../../../arm-elf/lib/libg.a(locale.o)
                0x0000e5d0                _setlocale_r
                0x0000e5a4                __locale_charset
                0x0000e5b4                _localeconv_r
                0x0000e634                setlocale
                0x0000e5c0                localeconv
 .text          0x0000e650      0x154 /usr/local/bin/../lib/gcc/arm-elf/4.1.0/../../../../arm-elf/lib/libg.a(makebuf.o)
                0x0000e650                __smakebuf
 .text          0x0000e7a4      0x770 /usr/local/bin/../lib/gcc/arm-elf/4.1.0/../../../../arm-elf/lib/libg.a(mallocr.o)
                0x0000e7a4                _malloc_r
 .text          0x0000ef14      0x104 /usr/local/bin/../lib/gcc/arm-elf/4.1.0/../../../../arm-elf/lib/libg.a(memchr.o)
                0x0000ef14                memchr
 .text          0x0000f018       0xfc /usr/local/bin/../lib/gcc/arm-elf/4.1.0/../../../../arm-elf/lib/libg.a(memmove.o)
                0x0000f018                memmove
 .text          0x0000f114        0x8 /usr/local/bin/../lib/gcc/arm-elf/4.1.0/../../../../arm-elf/lib/libg.a(mlock.o)
                0x0000f118                __malloc_unlock
                0x0000f114                __malloc_lock
 .text          0x0000f11c      0xbb0 /usr/local/bin/../lib/gcc/arm-elf/4.1.0/../../../../arm-elf/lib/libg.a(mprec.o)
                0x0000f410                _mprec_log10
                0x0000f138                _hi0bits
                0x0000f45c                _Balloc
                0x0000f4f4                _d2b
                0x0000f850                _multiply
                0x0000f398                _ratio
                0x0000fbec                _s2b
                0x0000fa10                _i2b
                0x0000f190                _lo0bits
                0x0000f224                __mcmp
                0x0000faf8                _pow5mult
                0x0000f284                _ulp
                0x0000f2e4                _b2d
                0x0000fa30                _multadd
                0x0000f628                __mdiff
                0x0000f75c                _lshift
                0x0000f11c                _Bfree
 .text          0x0000fccc      0x638 /usr/local/bin/../lib/gcc/arm-elf/4.1.0/../../../../arm-elf/lib/libg.a(reallocr.o)
                0x0000fccc                _realloc_r
 .text          0x00010304       0x3c /usr/local/bin/../lib/gcc/arm-elf/4.1.0/../../../../arm-elf/lib/libg.a(s_isinf.o)
                0x00010304                isinf
 .text          0x00010340       0x30 /usr/local/bin/../lib/gcc/arm-elf/4.1.0/../../../../arm-elf/lib/libg.a(s_isnan.o)
                0x00010340                isnan
 .text          0x00010370      0x100 /usr/local/bin/../lib/gcc/arm-elf/4.1.0/../../../../arm-elf/lib/libg.a(stdio.o)
                0x00010384                __sseek
                0x0001042c                __sread
                0x00010370                __sclose
                0x000103cc                __swrite
 .text          0x00010470      0x708 /usr/local/bin/../lib/gcc/arm-elf/4.1.0/../../../../arm-elf/lib/libg.a(syscalls.o)
                0x000104a0                _getpid
                0x000105fc                initialise_monitor_handles
                0x000104bc                isatty
                0x00010550                _fstat
                0x00010a54                _open
                0x000104fc                _sbrk
                0x000104b8                _raise
                0x000106b8                _times
                0x00010a74                _stat
                0x00010ac4                _lseek
                0x000104a8                _link
                0x000107d0                _swiwrite
                0x000104c4                _rename
                0x0001080c                _swilseek
                0x00010784                _swiclose
                0x00010920                _swiopen
                0x000104b0                _unlink
                0x000109c8                _write
                0x0001073c                _kill
                0x000106f4                _gettimeofday
                0x00010b10                _read
                0x00010764                _exit
                0x000104dc                _system
                0x00010ad4                _swiread
                0x00010a44                _close
 .text          0x00010b78       0xa0 /usr/local/bin/../lib/gcc/arm-elf/4.1.0/../../../../arm-elf/lib/libg.a(callocr.o)
                0x00010b78                _calloc_r
 .text          0x00010c18      0x128 /usr/local/bin/../lib/gcc/arm-elf/4.1.0/../../../../arm-elf/lib/libg.a(fclose.o)
                0x00010c18                _fclose_r
                0x00010d2c                fclose
 .text          0x00010d40       0x88 /usr/local/bin/../lib/gcc/arm-elf/4.1.0/libgcc.a(_eq_df.o)
                0x00010d54                __eqdf2
 *(.rodata)
 .rodata        0x00010dc8       0x18 ./httpd/httpd-cgi.o
 .rodata        0x00010de0    0x183d4 ./httpd/httpd-fs.o
                0x00010e08                file_index_html
                0x00010e1c                file_sisclogo_png
                0x00010e58                file_field_r_png
                0x00010e44                file_404_html
                0x00010e30                file_field_m_png
                0x00010de0                file_index_shtml
                0x00010df4                file_field_l_png
 .rodata        0x000291b4      0x24a ./httpd/http-strings.o
                0x000293d4                http_shtml
                0x000291b4                http_http
                0x000291d0                http_10
                0x0002934e                http_content_type_png
                0x00029317                http_content_type_css
                0x00029226                http_referer
                0x00029283                http_header_404
                0x000291c1                http_301
                0x000292de                http_content_type_plain
                0x000293f4                http_text
                0x000292fb                http_content_type_html
                0x000291f1                http_texthtml
                0x00029206                http_host
                0x0002936a                http_content_type_gif
                0x0002920d                http_crnl
                0x000291cb                http_get
                0x000291fb                http_location
                0x000293ef                http_jpg
                0x000293e0                http_css
                0x000291d9                http_11
                0x00029332                http_content_type_text
                0x000291c6                http_302
                0x000291e2                http_content_type
                0x0002922f                http_header_200
                0x000293f9                http_txt
                0x00029386                http_content_type_jpg
                0x000293ce                http_html
                0x00029210                http_index_html
                0x000293e5                http_png
                0x000291bc                http_200
                0x0002921c                http_404_html
                0x000293ea                http_gif
                0x000293a3                http_content_type_binary
                0x000293db                http_htm
 *fill*         0x000293fe        0x2 00
 .rodata        0x00029400       0x28 ./sockets/cli_webSock.o
 .rodata        0x00029428      0x110 ./cli/cli.o
                0x000294c0                api_cli
 .rodata        0x00029538       0x3c ./cli/cli_func.o
 .rodata        0x00029574        0x6 ../uip/uip_arp.o
 *fill*         0x0002957a        0x2 00
 .rodata        0x0002957c        0xc ../uip/psock.o
 .rodata        0x00029588       0x14 /usr/local/bin/../lib/gcc/arm-elf/4.1.0/libgcc.a(_thenan_df.o)
                0x00029588                __thenan_df
 .rodata        0x0002959c        0x4 /usr/local/bin/../lib/gcc/arm-elf/4.1.0/../../../../arm-elf/lib/libg.a(impure.o)
                0x0002959c                _global_impure_ptr
 .rodata        0x000295a0       0x20 /usr/local/bin/../lib/gcc/arm-elf/4.1.0/../../../../arm-elf/lib/libg.a(vfprintf.o)
 .rodata        0x000295c0      0x101 /usr/local/bin/../lib/gcc/arm-elf/4.1.0/../../../../arm-elf/lib/libg.a(ctype_.o)
                0x000295c0                _ctype_
 *fill*         0x000296c1        0x3 00
 .rodata        0x000296c4       0x34 /usr/local/bin/../lib/gcc/arm-elf/4.1.0/../../../../arm-elf/lib/libg.a(locale.o)
 .rodata        0x000296f8      0x124 /usr/local/bin/../lib/gcc/arm-elf/4.1.0/../../../../arm-elf/lib/libg.a(mprec.o)
                0x000297e8                __mprec_tinytens
                0x000296f8                __mprec_tens
                0x000297c0                __mprec_bigtens
 *(.rodata*)
 .rodata.str1.4
                0x0002981c       0xf1 main.o
                                 0xf4 (size before relaxing)
 *fill*         0x0002990d        0x3 00
 .rodata.str1.4
                0x00029910        0xf syscalls.o
                                 0x10 (size before relaxing)
 *fill*         0x0002991f        0x1 00
 .rodata.str1.4
                0x00029920       0x52 ./mac/emac.o
                                 0x54 (size before relaxing)
 *fill*         0x00029972        0x2 00
 .rodata.str1.4
                0x00029974      0x18b ./httpd/httpd-cgi.o
                                0x194 (size before relaxing)
 *fill*         0x00029aff        0x1 00
 .rodata.str1.4
                0x00029b00       0xe7 ./sockets/cli_webSock.o
                                 0xe8 (size before relaxing)
 *fill*         0x00029be7        0x1 00
 .rodata.str1.4
                0x00029be8        0xf ./eth/eth.o
                                 0x10 (size before relaxing)
 *fill*         0x00029bf7        0x1 00
 .rodata.str1.4
                0x00029bf8      0x1ff ./cli/cli.o
                                0x238 (size before relaxing)
 *fill*         0x00029df7        0x1 00
 .rodata.str1.4
                0x00029df8      0x18a ./cli/cli_func.o
                                0x1b4 (size before relaxing)
 *fill*         0x00029f82        0x2 00
 .rodata.str1.4
                0x00029f84       0x12 ./telnetd/shell.o
                                 0x30 (size before relaxing)
 *fill*         0x00029f96        0x2 00
 .rodata.str1.4
                0x00029f98       0x34 ../uip/psock.o
                                 0x64 (size before relaxing)
 .rodata.str1.4
                0x00029fcc        0x2 /usr/local/bin/../lib/gcc/arm-elf/4.1.0/../../../../arm-elf/lib/libg.a(impure.o)
                                  0x4 (size before relaxing)
 .rodata.str1.4
                0x00029fce        0x0 /usr/local/bin/../lib/gcc/arm-elf/4.1.0/../../../../arm-elf/lib/libg.a(puts.o)
                                  0x4 (size before relaxing)
 *fill*         0x00029fce        0x2 00
 .rodata.str1.4
                0x00029fd0       0x5f /usr/local/bin/../lib/gcc/arm-elf/4.1.0/../../../../arm-elf/lib/libg.a(vfprintf.o)
                                 0x64 (size before relaxing)
 *fill*         0x0002a02f        0x1 00
 .rodata.str1.4
                0x0002a030       0x1e /usr/local/bin/../lib/gcc/arm-elf/4.1.0/../../../../arm-elf/lib/libg.a(wctomb_r.o)
                                 0x20 (size before relaxing)
 *fill*         0x0002a04e        0x2 00
 .rodata.str1.4
                0x0002a050       0x10 /usr/local/bin/../lib/gcc/arm-elf/4.1.0/../../../../arm-elf/lib/libg.a(dtoa.o)
                                 0x14 (size before relaxing)
 .rodata.str1.4
                0x0002a060        0xb /usr/local/bin/../lib/gcc/arm-elf/4.1.0/../../../../arm-elf/lib/libg.a(locale.o)
                                 0x18 (size before relaxing)
 *fill*         0x0002a06b        0x1 00
 .rodata.str1.4
                0x0002a06c        0x4 /usr/local/bin/../lib/gcc/arm-elf/4.1.0/../../../../arm-elf/lib/libg.a(syscalls.o)
 *(.glue_7)
 *(.glue_7t)
                0x0002a070                __end_of_text__ = .

.data           0x40000000      0x844 load address 0x0002a070
                0x40000000                __data_beg__ = .
                0x0002a070                __data_beg_src__ = __end_of_text__
 *(.data)
 .data          0x40000000       0x10 ./httpd/httpd-cgi.o
 .data          0x40000010        0xc ./telnetd/telnetd.o
 .data          0x4000001c      0x404 /usr/local/bin/../lib/gcc/arm-elf/4.1.0/../../../../arm-elf/lib/libg.a(impure.o)
                0x4000001c                _impure_ptr
 .data          0x40000420        0x4 /usr/local/bin/../lib/gcc/arm-elf/4.1.0/../../../../arm-elf/lib/libg.a(ctype_.o)
                0x40000420                __ctype_ptr
 .data          0x40000424       0x10 /usr/local/bin/../lib/gcc/arm-elf/4.1.0/../../../../arm-elf/lib/libg.a(locale.o)
                0x40000424                __mb_cur_max
                0x40000428                __lc_ctype
 .data          0x40000434      0x410 /usr/local/bin/../lib/gcc/arm-elf/4.1.0/../../../../arm-elf/lib/libg.a(mallocr.o)
                0x40000840                __malloc_sbrk_base
                0x40000434                __malloc_av_
                0x4000083c                __malloc_trim_threshold
                0x40000844                __data_end__ = .

.bss            0x40000844     0x2aa4
                0x40000844                __bss_beg__ = .
 *(.bss)
 .bss           0x40000844        0x4 syscalls.o
 .bss           0x40000848        0x4 ./rtc/rtc.o
                0x40000848                alarm_on
 .bss           0x4000084c       0x14 ./i2c/i2c.o
                0x40000858                RdIndex
                0x4000084c                I2CMasterState
                0x40000850                I2CSlaveState
                0x40000854                I2CCount
                0x4000085c                WrIndex
 .bss           0x40000860        0x8 ./mac/emac.o
 .bss           0x40000868        0xe ./httpd/httpd-fs.o
 *fill*         0x40000876        0x2 00
 .bss           0x40000878      0x924 ./cli/cli.o
 .bss           0x4000119c      0x320 ./telnetd/telnetd.o
 .bss           0x400014bc       0x68 ../uip/uip_arp.o
 .bss           0x40001524       0x12 ../uip/uip.o
                0x40001524                uip_ethaddr
 *fill*         0x40001536        0x2 00
 .bss           0x40001538        0xc /usr/local/bin/../lib/gcc/arm-elf/4.1.0/../../../../arm-elf/lib/libg.a(locale.o)
                0x40001538                __nlocale_changed
                0x4000153c                __mlocale_changed
                0x40001540                _PathLocale
 .bss           0x40001544       0x34 /usr/local/bin/../lib/gcc/arm-elf/4.1.0/../../../../arm-elf/lib/libg.a(mallocr.o)
                0x40001544                __malloc_top_pad
                0x40001548                __malloc_max_sbrked_mem
                0x40001550                __malloc_current_mallinfo
                0x4000154c                __malloc_max_total_mem
 .bss           0x40001578       0xb0 /usr/local/bin/../lib/gcc/arm-elf/4.1.0/../../../../arm-elf/lib/libg.a(syscalls.o)
 COMMON         0x40001628       0x48 main.o
                0x40001628                uipIP_ADDR2
                0x4000162c                uipIP_ADDR3
                0x40001630                setpoint
                0x40001631                ac_auto_on
                0x40001632                temp1
                0x40001633                temp0
                0x40001634                uipIP_ADDR1
                0x40001638                localtime
                0x40001658                ac_modo
                0x4000165c                vectorAddrIPv4
                0x4000166c                uipIP_ADDR0
 COMMON         0x40001670        0x4 ./mprintf/mprintf.o
                0x40001670                gp_buf
 COMMON         0x40001674       0x50 ./i2c/i2c.o
                0x40001674                I2CReadLength
                0x40001678                I2CSlaveBuffer
                0x40001698                I2CMode
                0x4000169c                I2CMasterBuffer
                0x400016bc                I2CCmd
                0x400016c0                I2CWriteLength
 COMMON         0x400016c4       0x2c ./sockets/cli_webSock.o
                0x400016c4                so_cli
                0x400016ec                global_chat_flag
 COMMON         0x400016f0       0x10 ./eth/eth.o
                0x400016f0                arp_timer
                0x400016f8                periodic_timer
 COMMON         0x40001700     0x1be8 ../uip/uip.o
                0x40001700                uip_len
                0x40001704                uip_sappdata
                0x40001708                uip_acc32
                0x4000170c                uip_flags
                0x40001710                uip_appdata
                0x40001714                uip_conn
                0x40001718                uip_conns
                0x40002c58                uip_listenports
                0x40002ca8                uip_draddr
                0x40002cac                uip_stat
                0x40002cdc                uip_netmask
                0x40002ce0                uip_hostaddr
                0x40002ce4                uip_buf
                0x400032e6                uip_slen
                0x400032e8                . = ALIGN (0x4)
                0x400032e8                _bss_end__ = .
                0x400032e8                __bss_end__ = .
                0x400032e8                __end__ = .
                0x400032e8                . = ALIGN (0x4)
                0x400032e8                _end = .
                0x400032e8                PROVIDE (end, .)
OUTPUT(SELivre-ethernet-httpd.elf elf32-littlearm)

.debug_abbrev   0x00000000     0x72f1
 .debug_abbrev  0x00000000      0x1e0 main.o
 .debug_abbrev  0x000001e0      0x1f5 syscalls.o
 .debug_abbrev  0x000003d5       0xc7 ./uart/uart.o
 .debug_abbrev  0x0000049c      0x161 ./mprintf/mprintf.o
 .debug_abbrev  0x000005fd       0xe2 ./timer/timer.o
 .debug_abbrev  0x000006df       0xd8 ./rtc/rtc.o
 .debug_abbrev  0x000007b7       0xc8 ./i2c/i2c.o
 .debug_abbrev  0x0000087f       0x78 ./i2c/i2c_isr.o
 .debug_abbrev  0x000008f7      0x1ca ./mac/emac.o
 .debug_abbrev  0x00000ac1       0x29 ./mac/emac_isr.o
 .debug_abbrev  0x00000aea      0x25d ./httpd/httpd.o
 .debug_abbrev  0x00000d47      0x1ab ./httpd/httpd-cgi.o
 .debug_abbrev  0x00000ef2      0x164 ./httpd/httpd-fs.o
 .debug_abbrev  0x00001056       0x49 ./httpd/http-strings.o
 .debug_abbrev  0x0000109f      0x146 ./sockets/cli_webSock.o
 .debug_abbrev  0x000011e5      0x173 ./eth/eth.o
 .debug_abbrev  0x00001358       0xa1 ./lcd/lcd.o
 .debug_abbrev  0x000013f9      0x1e9 ./cli/cli.o
 .debug_abbrev  0x000015e2      0x142 ./cli/cli_func.o
 .debug_abbrev  0x00001724       0x2a ./cli/debug.o
 .debug_abbrev  0x0000174e      0x21f ./telnetd/telnetd.o
 .debug_abbrev  0x0000196d       0xc2 ./memb/memb.o
 .debug_abbrev  0x00001a2f      0x11a ./telnetd/shell.o
 .debug_abbrev  0x00001b49      0x1a1 ../uip/uip_arp.o
 .debug_abbrev  0x00001cea      0x2be ../uip/psock.o
 .debug_abbrev  0x00001fa8       0xe7 ../uip/timer.o
 .debug_abbrev  0x0000208f      0x285 ../uip/uip.o
 .debug_abbrev  0x00002314       0x10 /tmp/ccofrgum.o
 .debug_abbrev  0x00002324       0x14 /usr/local/bin/../lib/gcc/arm-elf/4.1.0/libgcc.a(_udivsi3.o)
 .debug_abbrev  0x00002338       0x14 /usr/local/bin/../lib/gcc/arm-elf/4.1.0/libgcc.a(_umodsi3.o)
 .debug_abbrev  0x0000234c       0x14 /usr/local/bin/../lib/gcc/arm-elf/4.1.0/libgcc.a(_dvmd_tls.o)
 .debug_abbrev  0x00002360      0x1b5 /usr/local/bin/../lib/gcc/arm-elf/4.1.0/libgcc.a(_addsub_df.o)
 .debug_abbrev  0x00002515      0x1e7 /usr/local/bin/../lib/gcc/arm-elf/4.1.0/libgcc.a(_mul_df.o)
 .debug_abbrev  0x000026fc      0x1db /usr/local/bin/../lib/gcc/arm-elf/4.1.0/libgcc.a(_div_df.o)
 .debug_abbrev  0x000028d7      0x157 /usr/local/bin/../lib/gcc/arm-elf/4.1.0/libgcc.a(_ne_df.o)
 .debug_abbrev  0x00002a2e      0x157 /usr/local/bin/../lib/gcc/arm-elf/4.1.0/libgcc.a(_gt_df.o)
 .debug_abbrev  0x00002b85      0x157 /usr/local/bin/../lib/gcc/arm-elf/4.1.0/libgcc.a(_ge_df.o)
 .debug_abbrev  0x00002cdc      0x157 /usr/local/bin/../lib/gcc/arm-elf/4.1.0/libgcc.a(_lt_df.o)
 .debug_abbrev  0x00002e33       0xf1 /usr/local/bin/../lib/gcc/arm-elf/4.1.0/libgcc.a(_si_to_df.o)
 .debug_abbrev  0x00002f24      0x166 /usr/local/bin/../lib/gcc/arm-elf/4.1.0/libgcc.a(_df_to_si.o)
 .debug_abbrev  0x0000308a       0xba /usr/local/bin/../lib/gcc/arm-elf/4.1.0/libgcc.a(_thenan_df.o)
 .debug_abbrev  0x00003144      0x192 /usr/local/bin/../lib/gcc/arm-elf/4.1.0/libgcc.a(_pack_df.o)
 .debug_abbrev  0x000032d6      0x149 /usr/local/bin/../lib/gcc/arm-elf/4.1.0/libgcc.a(_unpack_df.o)
 .debug_abbrev  0x0000341f      0x111 /usr/local/bin/../lib/gcc/arm-elf/4.1.0/libgcc.a(_fpcmp_parts_df.o)
 .debug_abbrev  0x00003530      0x15f /usr/local/bin/../lib/gcc/arm-elf/4.1.0/../../../../arm-elf/lib/libg.a(errno.o)
 .debug_abbrev  0x0000368f      0x157 /usr/local/bin/../lib/gcc/arm-elf/4.1.0/../../../../arm-elf/lib/libg.a(impure.o)
 .debug_abbrev  0x000037e6       0xa6 /usr/local/bin/../lib/gcc/arm-elf/4.1.0/../../../../arm-elf/lib/libg.a(memcpy.o)
 .debug_abbrev  0x0000388c       0xa9 /usr/local/bin/../lib/gcc/arm-elf/4.1.0/../../../../arm-elf/lib/libg.a(memset.o)
 .debug_abbrev  0x00003935      0x1a0 /usr/local/bin/../lib/gcc/arm-elf/4.1.0/../../../../arm-elf/lib/libg.a(printf.o)
 .debug_abbrev  0x00003ad5      0x1ac /usr/local/bin/../lib/gcc/arm-elf/4.1.0/../../../../arm-elf/lib/libg.a(puts.o)
 .debug_abbrev  0x00003c81       0x87 /usr/local/bin/../lib/gcc/arm-elf/4.1.0/../../../../arm-elf/lib/libg.a(strcat.o)
 .debug_abbrev  0x00003d08       0x9e /usr/local/bin/../lib/gcc/arm-elf/4.1.0/../../../../arm-elf/lib/libg.a(strchr.o)
 .debug_abbrev  0x00003da6       0x71 /usr/local/bin/../lib/gcc/arm-elf/4.1.0/../../../../arm-elf/lib/libg.a(strcmp.o)
 .debug_abbrev  0x00003e17       0xad /usr/local/bin/../lib/gcc/arm-elf/4.1.0/../../../../arm-elf/lib/libg.a(strcpy.o)
 .debug_abbrev  0x00003ec4       0x8b /usr/local/bin/../lib/gcc/arm-elf/4.1.0/../../../../arm-elf/lib/libg.a(strlen.o)
 .debug_abbrev  0x00003f4f       0xa3 /usr/local/bin/../lib/gcc/arm-elf/4.1.0/../../../../arm-elf/lib/libg.a(strncat.o)
 .debug_abbrev  0x00003ff2       0x7e /usr/local/bin/../lib/gcc/arm-elf/4.1.0/../../../../arm-elf/lib/libg.a(strncmp.o)
 .debug_abbrev  0x00004070       0x8d /usr/local/bin/../lib/gcc/arm-elf/4.1.0/../../../../arm-elf/lib/libg.a(strncpy.o)
 .debug_abbrev  0x000040fd       0x6f /usr/local/bin/../lib/gcc/arm-elf/4.1.0/../../../../arm-elf/lib/libg.a(strrchr.o)
 .debug_abbrev  0x0000416c       0x94 /usr/local/bin/../lib/gcc/arm-elf/4.1.0/../../../../arm-elf/lib/libg.a(strstr.o)
 .debug_abbrev  0x00004200      0x17f /usr/local/bin/../lib/gcc/arm-elf/4.1.0/../../../../arm-elf/lib/libg.a(strtok.o)
 .debug_abbrev  0x0000437f       0xbc /usr/local/bin/../lib/gcc/arm-elf/4.1.0/../../../../arm-elf/lib/libg.a(strtok_r.o)
 .debug_abbrev  0x0000443b       0x73 /usr/local/bin/../lib/gcc/arm-elf/4.1.0/../../../../arm-elf/lib/libg.a(toupper.o)
 .debug_abbrev  0x000044ae      0x367 /usr/local/bin/../lib/gcc/arm-elf/4.1.0/../../../../arm-elf/lib/libg.a(vfprintf.o)
 .debug_abbrev  0x00004815      0x18e /usr/local/bin/../lib/gcc/arm-elf/4.1.0/../../../../arm-elf/lib/libg.a(wcrtomb.o)
 .debug_abbrev  0x000049a3      0x1a4 /usr/local/bin/../lib/gcc/arm-elf/4.1.0/../../../../arm-elf/lib/libg.a(wcsrtombs.o)
 .debug_abbrev  0x00004b47      0x1ab /usr/local/bin/../lib/gcc/arm-elf/4.1.0/../../../../arm-elf/lib/libg.a(wctomb_r.o)
 .debug_abbrev  0x00004cf2      0x170 /usr/local/bin/../lib/gcc/arm-elf/4.1.0/../../../../arm-elf/lib/libg.a(wsetup.o)
 .debug_abbrev  0x00004e62       0x52 /usr/local/bin/../lib/gcc/arm-elf/4.1.0/../../../../arm-elf/lib/libg.a(ctype_.o)
 .debug_abbrev  0x00004eb4      0x223 /usr/local/bin/../lib/gcc/arm-elf/4.1.0/../../../../arm-elf/lib/libg.a(dtoa.o)
 .debug_abbrev  0x000050d7      0x17f /usr/local/bin/../lib/gcc/arm-elf/4.1.0/../../../../arm-elf/lib/libg.a(fflush.o)
 .debug_abbrev  0x00005256      0x24c /usr/local/bin/../lib/gcc/arm-elf/4.1.0/../../../../arm-elf/lib/libg.a(findfp.o)
 .debug_abbrev  0x000054a2      0x1e8 /usr/local/bin/../lib/gcc/arm-elf/4.1.0/../../../../arm-elf/lib/libg.a(freer.o)
 .debug_abbrev  0x0000568a      0x1b4 /usr/local/bin/../lib/gcc/arm-elf/4.1.0/../../../../arm-elf/lib/libg.a(fvwrite.o)
 .debug_abbrev  0x0000583e      0x1ee /usr/local/bin/../lib/gcc/arm-elf/4.1.0/../../../../arm-elf/lib/libg.a(fwalk.o)
 .debug_abbrev  0x00005a2c      0x1de /usr/local/bin/../lib/gcc/arm-elf/4.1.0/../../../../arm-elf/lib/libg.a(locale.o)
 .debug_abbrev  0x00005c0a      0x1a8 /usr/local/bin/../lib/gcc/arm-elf/4.1.0/../../../../arm-elf/lib/libg.a(makebuf.o)
 .debug_abbrev  0x00005db2      0x225 /usr/local/bin/../lib/gcc/arm-elf/4.1.0/../../../../arm-elf/lib/libg.a(mallocr.o)
 .debug_abbrev  0x00005fd7       0xb5 /usr/local/bin/../lib/gcc/arm-elf/4.1.0/../../../../arm-elf/lib/libg.a(memchr.o)
 .debug_abbrev  0x0000608c       0x99 /usr/local/bin/../lib/gcc/arm-elf/4.1.0/../../../../arm-elf/lib/libg.a(memmove.o)
 .debug_abbrev  0x00006125      0x16a /usr/local/bin/../lib/gcc/arm-elf/4.1.0/../../../../arm-elf/lib/libg.a(mlock.o)
 .debug_abbrev  0x0000628f      0x280 /usr/local/bin/../lib/gcc/arm-elf/4.1.0/../../../../arm-elf/lib/libg.a(mprec.o)
 .debug_abbrev  0x0000650f      0x1c3 /usr/local/bin/../lib/gcc/arm-elf/4.1.0/../../../../arm-elf/lib/libg.a(reallocr.o)
 .debug_abbrev  0x000066d2       0xd4 /usr/local/bin/../lib/gcc/arm-elf/4.1.0/../../../../arm-elf/lib/libg.a(s_isinf.o)
 .debug_abbrev  0x000067a6       0xd4 /usr/local/bin/../lib/gcc/arm-elf/4.1.0/../../../../arm-elf/lib/libg.a(s_isnan.o)
 .debug_abbrev  0x0000687a      0x1b4 /usr/local/bin/../lib/gcc/arm-elf/4.1.0/../../../../arm-elf/lib/libg.a(stdio.o)
 .debug_abbrev  0x00006a2e      0x407 /usr/local/bin/../lib/gcc/arm-elf/4.1.0/../../../../arm-elf/lib/libg.a(syscalls.o)
 .debug_abbrev  0x00006e35      0x1be /usr/local/bin/../lib/gcc/arm-elf/4.1.0/../../../../arm-elf/lib/libg.a(callocr.o)
 .debug_abbrev  0x00006ff3      0x1a7 /usr/local/bin/../lib/gcc/arm-elf/4.1.0/../../../../arm-elf/lib/libg.a(fclose.o)
 .debug_abbrev  0x0000719a      0x157 /usr/local/bin/../lib/gcc/arm-elf/4.1.0/libgcc.a(_eq_df.o)

.debug_info     0x00000000    0x1d60a
 .debug_info    0x00000000      0x517 main.o
 .debug_info    0x00000517      0xca5 syscalls.o
 .debug_info    0x000011bc      0x194 ./uart/uart.o
 .debug_info    0x00001350      0x42f ./mprintf/mprintf.o
 .debug_info    0x0000177f      0x141 ./timer/timer.o
 .debug_info    0x000018c0      0x1bd ./rtc/rtc.o
 .debug_info    0x00001a7d      0x1b3 ./i2c/i2c.o
 .debug_info    0x00001c30       0xd5 ./i2c/i2c_isr.o
 .debug_info    0x00001d05      0x400 ./mac/emac.o
 .debug_info    0x00002105       0x3b ./mac/emac_isr.o
 .debug_info    0x00002140      0x98f ./httpd/httpd.o
 .debug_info    0x00002acf      0x62f ./httpd/httpd-cgi.o
 .debug_info    0x000030fe      0x4fc ./httpd/httpd-fs.o
 .debug_info    0x000035fa      0x442 ./httpd/http-strings.o
 .debug_info    0x00003a3c      0x31b ./sockets/cli_webSock.o
 .debug_info    0x00003d57      0x4dc ./eth/eth.o
 .debug_info    0x00004233      0x19a ./lcd/lcd.o
 .debug_info    0x000043cd      0x5c3 ./cli/cli.o
 .debug_info    0x00004990      0x59d ./cli/cli_func.o
 .debug_info    0x00004f2d       0x7a ./cli/debug.o
 .debug_info    0x00004fa7      0x6b0 ./telnetd/telnetd.o
 .debug_info    0x00005657      0x177 ./memb/memb.o
 .debug_info    0x000057ce      0x25a ./telnetd/shell.o
 .debug_info    0x00005a28      0x324 ../uip/uip_arp.o
 .debug_info    0x00005d4c      0x775 ../uip/psock.o
 .debug_info    0x000064c1      0x115 ../uip/timer.o
 .debug_info    0x000065d6      0xa46 ../uip/uip.o
 .debug_info    0x0000701c       0x4f /tmp/ccofrgum.o
 .debug_info    0x0000706b       0x88 /usr/local/bin/../lib/gcc/arm-elf/4.1.0/libgcc.a(_udivsi3.o)
 .debug_info    0x000070f3       0x88 /usr/local/bin/../lib/gcc/arm-elf/4.1.0/libgcc.a(_umodsi3.o)
 .debug_info    0x0000717b       0x88 /usr/local/bin/../lib/gcc/arm-elf/4.1.0/libgcc.a(_dvmd_tls.o)
 .debug_info    0x00007203      0x479 /usr/local/bin/../lib/gcc/arm-elf/4.1.0/libgcc.a(_addsub_df.o)
 .debug_info    0x0000767c      0x478 /usr/local/bin/../lib/gcc/arm-elf/4.1.0/libgcc.a(_mul_df.o)
 .debug_info    0x00007af4      0x3b2 /usr/local/bin/../lib/gcc/arm-elf/4.1.0/libgcc.a(_div_df.o)
 .debug_info    0x00007ea6      0x2aa /usr/local/bin/../lib/gcc/arm-elf/4.1.0/libgcc.a(_ne_df.o)
 .debug_info    0x00008150      0x2aa /usr/local/bin/../lib/gcc/arm-elf/4.1.0/libgcc.a(_gt_df.o)
 .debug_info    0x000083fa      0x2aa /usr/local/bin/../lib/gcc/arm-elf/4.1.0/libgcc.a(_ge_df.o)
 .debug_info    0x000086a4      0x2aa /usr/local/bin/../lib/gcc/arm-elf/4.1.0/libgcc.a(_lt_df.o)
 .debug_info    0x0000894e      0x1bd /usr/local/bin/../lib/gcc/arm-elf/4.1.0/libgcc.a(_si_to_df.o)
 .debug_info    0x00008b0b      0x2de /usr/local/bin/../lib/gcc/arm-elf/4.1.0/libgcc.a(_df_to_si.o)
 .debug_info    0x00008de9      0x164 /usr/local/bin/../lib/gcc/arm-elf/4.1.0/libgcc.a(_thenan_df.o)
 .debug_info    0x00008f4d      0x323 /usr/local/bin/../lib/gcc/arm-elf/4.1.0/libgcc.a(_pack_df.o)
 .debug_info    0x00009270      0x27a /usr/local/bin/../lib/gcc/arm-elf/4.1.0/libgcc.a(_unpack_df.o)
 .debug_info    0x000094ea      0x218 /usr/local/bin/../lib/gcc/arm-elf/4.1.0/libgcc.a(_fpcmp_parts_df.o)
 .debug_info    0x00009702      0x913 /usr/local/bin/../lib/gcc/arm-elf/4.1.0/../../../../arm-elf/lib/libg.a(errno.o)
 .debug_info    0x0000a015      0x922 /usr/local/bin/../lib/gcc/arm-elf/4.1.0/../../../../arm-elf/lib/libg.a(impure.o)
 .debug_info    0x0000a937      0x10a /usr/local/bin/../lib/gcc/arm-elf/4.1.0/../../../../arm-elf/lib/libg.a(memcpy.o)
 .debug_info    0x0000aa41      0x10e /usr/local/bin/../lib/gcc/arm-elf/4.1.0/../../../../arm-elf/lib/libg.a(memset.o)
 .debug_info    0x0000ab4f      0x9b0 /usr/local/bin/../lib/gcc/arm-elf/4.1.0/../../../../arm-elf/lib/libg.a(printf.o)
 .debug_info    0x0000b4ff      0xa11 /usr/local/bin/../lib/gcc/arm-elf/4.1.0/../../../../arm-elf/lib/libg.a(puts.o)
 .debug_info    0x0000bf10       0xe6 /usr/local/bin/../lib/gcc/arm-elf/4.1.0/../../../../arm-elf/lib/libg.a(strcat.o)
 .debug_info    0x0000bff6      0x10f /usr/local/bin/../lib/gcc/arm-elf/4.1.0/../../../../arm-elf/lib/libg.a(strchr.o)
 .debug_info    0x0000c105       0xd8 /usr/local/bin/../lib/gcc/arm-elf/4.1.0/../../../../arm-elf/lib/libg.a(strcmp.o)
 .debug_info    0x0000c1dd      0x107 /usr/local/bin/../lib/gcc/arm-elf/4.1.0/../../../../arm-elf/lib/libg.a(strcpy.o)
 .debug_info    0x0000c2e4       0xd4 /usr/local/bin/../lib/gcc/arm-elf/4.1.0/../../../../arm-elf/lib/libg.a(strlen.o)
 .debug_info    0x0000c3b8       0xfc /usr/local/bin/../lib/gcc/arm-elf/4.1.0/../../../../arm-elf/lib/libg.a(strncat.o)
 .debug_info    0x0000c4b4       0xf2 /usr/local/bin/../lib/gcc/arm-elf/4.1.0/../../../../arm-elf/lib/libg.a(strncmp.o)
 .debug_info    0x0000c5a6      0x127 /usr/local/bin/../lib/gcc/arm-elf/4.1.0/../../../../arm-elf/lib/libg.a(strncpy.o)
 .debug_info    0x0000c6cd       0xc5 /usr/local/bin/../lib/gcc/arm-elf/4.1.0/../../../../arm-elf/lib/libg.a(strrchr.o)
 .debug_info    0x0000c792       0xd8 /usr/local/bin/../lib/gcc/arm-elf/4.1.0/../../../../arm-elf/lib/libg.a(strstr.o)
 .debug_info    0x0000c86a      0x92e /usr/local/bin/../lib/gcc/arm-elf/4.1.0/../../../../arm-elf/lib/libg.a(strtok.o)
 .debug_info    0x0000d198      0x159 /usr/local/bin/../lib/gcc/arm-elf/4.1.0/../../../../arm-elf/lib/libg.a(strtok_r.o)
 .debug_info    0x0000d2f1       0x75 /usr/local/bin/../lib/gcc/arm-elf/4.1.0/../../../../arm-elf/lib/libg.a(toupper.o)
 .debug_info    0x0000d366     0x10ee /usr/local/bin/../lib/gcc/arm-elf/4.1.0/../../../../arm-elf/lib/libg.a(vfprintf.o)
 .debug_info    0x0000e454      0x9ef /usr/local/bin/../lib/gcc/arm-elf/4.1.0/../../../../arm-elf/lib/libg.a(wcrtomb.o)
 .debug_info    0x0000ee43      0xa84 /usr/local/bin/../lib/gcc/arm-elf/4.1.0/../../../../arm-elf/lib/libg.a(wcsrtombs.o)
 .debug_info    0x0000f8c7      0x9f7 /usr/local/bin/../lib/gcc/arm-elf/4.1.0/../../../../arm-elf/lib/libg.a(wctomb_r.o)
 .debug_info    0x000102be      0x93a /usr/local/bin/../lib/gcc/arm-elf/4.1.0/../../../../arm-elf/lib/libg.a(wsetup.o)
 .debug_info    0x00010bf8       0x79 /usr/local/bin/../lib/gcc/arm-elf/4.1.0/../../../../arm-elf/lib/libg.a(ctype_.o)
 .debug_info    0x00010c71      0xd61 /usr/local/bin/../lib/gcc/arm-elf/4.1.0/../../../../arm-elf/lib/libg.a(dtoa.o)
 .debug_info    0x000119d2      0x974 /usr/local/bin/../lib/gcc/arm-elf/4.1.0/../../../../arm-elf/lib/libg.a(fflush.o)
 .debug_info    0x00012346      0xb61 /usr/local/bin/../lib/gcc/arm-elf/4.1.0/../../../../arm-elf/lib/libg.a(findfp.o)
 .debug_info    0x00012ea7      0xbb1 /usr/local/bin/../lib/gcc/arm-elf/4.1.0/../../../../arm-elf/lib/libg.a(freer.o)
 .debug_info    0x00013a58      0xa5f /usr/local/bin/../lib/gcc/arm-elf/4.1.0/../../../../arm-elf/lib/libg.a(fvwrite.o)
 .debug_info    0x000144b7      0xad9 /usr/local/bin/../lib/gcc/arm-elf/4.1.0/../../../../arm-elf/lib/libg.a(fwalk.o)
 .debug_info    0x00014f90      0xb7e /usr/local/bin/../lib/gcc/arm-elf/4.1.0/../../../../arm-elf/lib/libg.a(locale.o)
 .debug_info    0x00015b0e      0xad9 /usr/local/bin/../lib/gcc/arm-elf/4.1.0/../../../../arm-elf/lib/libg.a(makebuf.o)
 .debug_info    0x000165e7      0xcba /usr/local/bin/../lib/gcc/arm-elf/4.1.0/../../../../arm-elf/lib/libg.a(mallocr.o)
 .debug_info    0x000172a1      0x133 /usr/local/bin/../lib/gcc/arm-elf/4.1.0/../../../../arm-elf/lib/libg.a(memchr.o)
 .debug_info    0x000173d4      0x13f /usr/local/bin/../lib/gcc/arm-elf/4.1.0/../../../../arm-elf/lib/libg.a(memmove.o)
 .debug_info    0x00017513      0x93c /usr/local/bin/../lib/gcc/arm-elf/4.1.0/../../../../arm-elf/lib/libg.a(mlock.o)
 .debug_info    0x00017e4f     0x1319 /usr/local/bin/../lib/gcc/arm-elf/4.1.0/../../../../arm-elf/lib/libg.a(mprec.o)
 .debug_info    0x00019168      0xbc7 /usr/local/bin/../lib/gcc/arm-elf/4.1.0/../../../../arm-elf/lib/libg.a(reallocr.o)
 .debug_info    0x00019d2f      0x153 /usr/local/bin/../lib/gcc/arm-elf/4.1.0/../../../../arm-elf/lib/libg.a(s_isinf.o)
 .debug_info    0x00019e82      0x151 /usr/local/bin/../lib/gcc/arm-elf/4.1.0/../../../../arm-elf/lib/libg.a(s_isnan.o)
 .debug_info    0x00019fd3      0xa70 /usr/local/bin/../lib/gcc/arm-elf/4.1.0/../../../../arm-elf/lib/libg.a(stdio.o)
 .debug_info    0x0001aa43     0x159c /usr/local/bin/../lib/gcc/arm-elf/4.1.0/../../../../arm-elf/lib/libg.a(syscalls.o)
 .debug_info    0x0001bfdf      0xa01 /usr/local/bin/../lib/gcc/arm-elf/4.1.0/../../../../arm-elf/lib/libg.a(callocr.o)
 .debug_info    0x0001c9e0      0x980 /usr/local/bin/../lib/gcc/arm-elf/4.1.0/../../../../arm-elf/lib/libg.a(fclose.o)
 .debug_info    0x0001d360      0x2aa /usr/local/bin/../lib/gcc/arm-elf/4.1.0/libgcc.a(_eq_df.o)

.debug_line     0x00000000     0x6480
 .debug_line    0x00000000       0xf8 main.o
 .debug_line    0x000000f8      0x12b syscalls.o
 .debug_line    0x00000223       0x92 ./uart/uart.o
 .debug_line    0x000002b5      0x133 ./mprintf/mprintf.o
 .debug_line    0x000003e8       0x61 ./timer/timer.o
 .debug_line    0x00000449       0x7c ./rtc/rtc.o
 .debug_line    0x000004c5       0x61 ./i2c/i2c.o
 .debug_line    0x00000526       0x6d ./i2c/i2c_isr.o
 .debug_line    0x00000593       0xe9 ./mac/emac.o
 .debug_line    0x0000067c       0x3d ./mac/emac_isr.o
 .debug_line    0x000006b9      0x1e2 ./httpd/httpd.o
 .debug_line    0x0000089b      0x165 ./httpd/httpd-cgi.o
 .debug_line    0x00000a00       0xf9 ./httpd/httpd-fs.o
 .debug_line    0x00000af9       0x32 ./httpd/http-strings.o
 .debug_line    0x00000b2b      0x131 ./sockets/cli_webSock.o
 .debug_line    0x00000c5c      0x16c ./eth/eth.o
 .debug_line    0x00000dc8       0x67 ./lcd/lcd.o
 .debug_line    0x00000e2f       0xcd ./cli/cli.o
 .debug_line    0x00000efc      0x167 ./cli/cli_func.o
 .debug_line    0x00001063       0x1a ./cli/debug.o
 .debug_line    0x0000107d      0x1bc ./telnetd/telnetd.o
 .debug_line    0x00001239       0x63 ./memb/memb.o
 .debug_line    0x0000129c       0x65 ./telnetd/shell.o
 .debug_line    0x00001301      0x138 ../uip/uip_arp.o
 .debug_line    0x00001439      0x1bc ../uip/psock.o
 .debug_line    0x000015f5       0x6e ../uip/timer.o
 .debug_line    0x00001663      0x329 ../uip/uip.o
 .debug_line    0x0000198c       0x79 /tmp/ccofrgum.o
 .debug_line    0x00001a05       0x8d /usr/local/bin/../lib/gcc/arm-elf/4.1.0/libgcc.a(_udivsi3.o)
 .debug_line    0x00001a92       0x76 /usr/local/bin/../lib/gcc/arm-elf/4.1.0/libgcc.a(_umodsi3.o)
 .debug_line    0x00001b08       0x61 /usr/local/bin/../lib/gcc/arm-elf/4.1.0/libgcc.a(_dvmd_tls.o)
 .debug_line    0x00001b69      0x10d /usr/local/bin/../lib/gcc/arm-elf/4.1.0/libgcc.a(_addsub_df.o)
 .debug_line    0x00001c76       0xf0 /usr/local/bin/../lib/gcc/arm-elf/4.1.0/libgcc.a(_mul_df.o)
 .debug_line    0x00001d66       0xce /usr/local/bin/../lib/gcc/arm-elf/4.1.0/libgcc.a(_div_df.o)
 .debug_line    0x00001e34       0x79 /usr/local/bin/../lib/gcc/arm-elf/4.1.0/libgcc.a(_ne_df.o)
 .debug_line    0x00001ead       0x79 /usr/local/bin/../lib/gcc/arm-elf/4.1.0/libgcc.a(_gt_df.o)
 .debug_line    0x00001f26       0x79 /usr/local/bin/../lib/gcc/arm-elf/4.1.0/libgcc.a(_ge_df.o)
 .debug_line    0x00001f9f       0x79 /usr/local/bin/../lib/gcc/arm-elf/4.1.0/libgcc.a(_lt_df.o)
 .debug_line    0x00002018       0x7e /usr/local/bin/../lib/gcc/arm-elf/4.1.0/libgcc.a(_si_to_df.o)
 .debug_line    0x00002096       0x87 /usr/local/bin/../lib/gcc/arm-elf/4.1.0/libgcc.a(_df_to_si.o)
 .debug_line    0x0000211d       0x54 /usr/local/bin/../lib/gcc/arm-elf/4.1.0/libgcc.a(_thenan_df.o)
 .debug_line    0x00002171       0xca /usr/local/bin/../lib/gcc/arm-elf/4.1.0/libgcc.a(_pack_df.o)
 .debug_line    0x0000223b       0xb1 /usr/local/bin/../lib/gcc/arm-elf/4.1.0/libgcc.a(_unpack_df.o)
 .debug_line    0x000022ec       0xa2 /usr/local/bin/../lib/gcc/arm-elf/4.1.0/libgcc.a(_fpcmp_parts_df.o)
 .debug_line    0x0000238e      0x10d /usr/local/bin/../lib/gcc/arm-elf/4.1.0/../../../../arm-elf/lib/libg.a(errno.o)
 .debug_line    0x0000249b       0xfe /usr/local/bin/../lib/gcc/arm-elf/4.1.0/../../../../arm-elf/lib/libg.a(impure.o)
 .debug_line    0x00002599       0xcb /usr/local/bin/../lib/gcc/arm-elf/4.1.0/../../../../arm-elf/lib/libg.a(memcpy.o)
 .debug_line    0x00002664       0xd3 /usr/local/bin/../lib/gcc/arm-elf/4.1.0/../../../../arm-elf/lib/libg.a(memset.o)
 .debug_line    0x00002737      0x12f /usr/local/bin/../lib/gcc/arm-elf/4.1.0/../../../../arm-elf/lib/libg.a(printf.o)
 .debug_line    0x00002866      0x134 /usr/local/bin/../lib/gcc/arm-elf/4.1.0/../../../../arm-elf/lib/libg.a(puts.o)
 .debug_line    0x0000299a       0x7e /usr/local/bin/../lib/gcc/arm-elf/4.1.0/../../../../arm-elf/lib/libg.a(strcat.o)
 .debug_line    0x00002a18       0x81 /usr/local/bin/../lib/gcc/arm-elf/4.1.0/../../../../arm-elf/lib/libg.a(strchr.o)
 .debug_line    0x00002a99       0x85 /usr/local/bin/../lib/gcc/arm-elf/4.1.0/../../../../arm-elf/lib/libg.a(strcmp.o)
 .debug_line    0x00002b1e       0x7d /usr/local/bin/../lib/gcc/arm-elf/4.1.0/../../../../arm-elf/lib/libg.a(strcpy.o)
 .debug_line    0x00002b9b       0xaf /usr/local/bin/../lib/gcc/arm-elf/4.1.0/../../../../arm-elf/lib/libg.a(strlen.o)
 .debug_line    0x00002c4a       0xbb /usr/local/bin/../lib/gcc/arm-elf/4.1.0/../../../../arm-elf/lib/libg.a(strncat.o)
 .debug_line    0x00002d05       0xe3 /usr/local/bin/../lib/gcc/arm-elf/4.1.0/../../../../arm-elf/lib/libg.a(strncmp.o)
 .debug_line    0x00002de8       0xd5 /usr/local/bin/../lib/gcc/arm-elf/4.1.0/../../../../arm-elf/lib/libg.a(strncpy.o)
 .debug_line    0x00002ebd       0x79 /usr/local/bin/../lib/gcc/arm-elf/4.1.0/../../../../arm-elf/lib/libg.a(strrchr.o)
 .debug_line    0x00002f36       0xb7 /usr/local/bin/../lib/gcc/arm-elf/4.1.0/../../../../arm-elf/lib/libg.a(strstr.o)
 .debug_line    0x00002fed      0x110 /usr/local/bin/../lib/gcc/arm-elf/4.1.0/../../../../arm-elf/lib/libg.a(strtok.o)
 .debug_line    0x000030fd       0xa5 /usr/local/bin/../lib/gcc/arm-elf/4.1.0/../../../../arm-elf/lib/libg.a(strtok_r.o)
 .debug_line    0x000031a2       0xbc /usr/local/bin/../lib/gcc/arm-elf/4.1.0/../../../../arm-elf/lib/libg.a(toupper.o)
 .debug_line    0x0000325e      0x581 /usr/local/bin/../lib/gcc/arm-elf/4.1.0/../../../../arm-elf/lib/libg.a(vfprintf.o)
 .debug_line    0x000037df      0x180 /usr/local/bin/../lib/gcc/arm-elf/4.1.0/../../../../arm-elf/lib/libg.a(wcrtomb.o)
 .debug_line    0x0000395f      0x1a6 /usr/local/bin/../lib/gcc/arm-elf/4.1.0/../../../../arm-elf/lib/libg.a(wcsrtombs.o)
 .debug_line    0x00003b05      0x230 /usr/local/bin/../lib/gcc/arm-elf/4.1.0/../../../../arm-elf/lib/libg.a(wctomb_r.o)
 .debug_line    0x00003d35      0x17e /usr/local/bin/../lib/gcc/arm-elf/4.1.0/../../../../arm-elf/lib/libg.a(wsetup.o)
 .debug_line    0x00003eb3       0x5c /usr/local/bin/../lib/gcc/arm-elf/4.1.0/../../../../arm-elf/lib/libg.a(ctype_.o)
 .debug_line    0x00003f0f      0x482 /usr/local/bin/../lib/gcc/arm-elf/4.1.0/../../../../arm-elf/lib/libg.a(dtoa.o)
 .debug_line    0x00004391      0x181 /usr/local/bin/../lib/gcc/arm-elf/4.1.0/../../../../arm-elf/lib/libg.a(fflush.o)
 .debug_line    0x00004512      0x1fa /usr/local/bin/../lib/gcc/arm-elf/4.1.0/../../../../arm-elf/lib/libg.a(findfp.o)
 .debug_line    0x0000470c      0x1c6 /usr/local/bin/../lib/gcc/arm-elf/4.1.0/../../../../arm-elf/lib/libg.a(freer.o)
 .debug_line    0x000048d2      0x219 /usr/local/bin/../lib/gcc/arm-elf/4.1.0/../../../../arm-elf/lib/libg.a(fvwrite.o)
 .debug_line    0x00004aeb      0x181 /usr/local/bin/../lib/gcc/arm-elf/4.1.0/../../../../arm-elf/lib/libg.a(fwalk.o)
 .debug_line    0x00004c6c      0x183 /usr/local/bin/../lib/gcc/arm-elf/4.1.0/../../../../arm-elf/lib/libg.a(locale.o)
 .debug_line    0x00004def      0x1ab /usr/local/bin/../lib/gcc/arm-elf/4.1.0/../../../../arm-elf/lib/libg.a(makebuf.o)
 .debug_line    0x00004f9a      0x247 /usr/local/bin/../lib/gcc/arm-elf/4.1.0/../../../../arm-elf/lib/libg.a(mallocr.o)
 .debug_line    0x000051e1       0xe0 /usr/local/bin/../lib/gcc/arm-elf/4.1.0/../../../../arm-elf/lib/libg.a(memchr.o)
 .debug_line    0x000052c1       0xdb /usr/local/bin/../lib/gcc/arm-elf/4.1.0/../../../../arm-elf/lib/libg.a(memmove.o)
 .debug_line    0x0000539c      0x110 /usr/local/bin/../lib/gcc/arm-elf/4.1.0/../../../../arm-elf/lib/libg.a(mlock.o)
 .debug_line    0x000054ac      0x41d /usr/local/bin/../lib/gcc/arm-elf/4.1.0/../../../../arm-elf/lib/libg.a(mprec.o)
 .debug_line    0x000058c9      0x1df /usr/local/bin/../lib/gcc/arm-elf/4.1.0/../../../../arm-elf/lib/libg.a(reallocr.o)
 .debug_line    0x00005aa8      0x116 /usr/local/bin/../lib/gcc/arm-elf/4.1.0/../../../../arm-elf/lib/libg.a(s_isinf.o)
 .debug_line    0x00005bbe      0x113 /usr/local/bin/../lib/gcc/arm-elf/4.1.0/../../../../arm-elf/lib/libg.a(s_isnan.o)
 .debug_line    0x00005cd1      0x19f /usr/local/bin/../lib/gcc/arm-elf/4.1.0/../../../../arm-elf/lib/libg.a(stdio.o)
 .debug_line    0x00005e70      0x2fb /usr/local/bin/../lib/gcc/arm-elf/4.1.0/../../../../arm-elf/lib/libg.a(syscalls.o)
 .debug_line    0x0000616b      0x11c /usr/local/bin/../lib/gcc/arm-elf/4.1.0/../../../../arm-elf/lib/libg.a(callocr.o)
 .debug_line    0x00006287      0x180 /usr/local/bin/../lib/gcc/arm-elf/4.1.0/../../../../arm-elf/lib/libg.a(fclose.o)
 .debug_line    0x00006407       0x79 /usr/local/bin/../lib/gcc/arm-elf/4.1.0/libgcc.a(_eq_df.o)

.debug_frame    0x00000000     0x250c
 .debug_frame   0x00000000      0x11c main.o
 .debug_frame   0x0000011c       0xa8 syscalls.o
 .debug_frame   0x000001c4       0x88 ./uart/uart.o
 .debug_frame   0x0000024c      0x110 ./mprintf/mprintf.o
 .debug_frame   0x0000035c       0x90 ./timer/timer.o
 .debug_frame   0x000003ec       0xa8 ./rtc/rtc.o
 .debug_frame   0x00000494       0x58 ./i2c/i2c.o
 .debug_frame   0x000004ec       0x30 ./i2c/i2c_isr.o
 .debug_frame   0x0000051c      0x168 ./mac/emac.o
 .debug_frame   0x00000684       0x30 ./mac/emac_isr.o
 .debug_frame   0x000006b4       0xb4 ./httpd/httpd.o
 .debug_frame   0x00000768       0xf0 ./httpd/httpd-cgi.o
 .debug_frame   0x00000858       0x74 ./httpd/httpd-fs.o
 .debug_frame   0x000008cc       0x6c ./sockets/cli_webSock.o
 .debug_frame   0x00000938       0xc8 ./eth/eth.o
 .debug_frame   0x00000a00       0xc4 ./lcd/lcd.o
 .debug_frame   0x00000ac4       0xcc ./cli/cli.o
 .debug_frame   0x00000b90      0x124 ./cli/cli_func.o
 .debug_frame   0x00000cb4      0x110 ./telnetd/telnetd.o
 .debug_frame   0x00000dc4       0x5c ./memb/memb.o
 .debug_frame   0x00000e20       0x58 ./telnetd/shell.o
 .debug_frame   0x00000e78       0xc0 ../uip/uip_arp.o
 .debug_frame   0x00000f38      0x100 ../uip/psock.o
 .debug_frame   0x00001038       0x68 ../uip/timer.o
 .debug_frame   0x000010a0      0x170 ../uip/uip.o
 .debug_frame   0x00001210       0x28 /usr/local/bin/../lib/gcc/arm-elf/4.1.0/libgcc.a(_udivsi3.o)
 .debug_frame   0x00001238       0x28 /usr/local/bin/../lib/gcc/arm-elf/4.1.0/libgcc.a(_umodsi3.o)
 .debug_frame   0x00001260       0xb0 /usr/local/bin/../lib/gcc/arm-elf/4.1.0/libgcc.a(_addsub_df.o)
 .debug_frame   0x00001310       0x78 /usr/local/bin/../lib/gcc/arm-elf/4.1.0/libgcc.a(_mul_df.o)
 .debug_frame   0x00001388       0x78 /usr/local/bin/../lib/gcc/arm-elf/4.1.0/libgcc.a(_div_df.o)
 .debug_frame   0x00001400       0x3c /usr/local/bin/../lib/gcc/arm-elf/4.1.0/libgcc.a(_ne_df.o)
 .debug_frame   0x0000143c       0x3c /usr/local/bin/../lib/gcc/arm-elf/4.1.0/libgcc.a(_gt_df.o)
 .debug_frame   0x00001478       0x3c /usr/local/bin/../lib/gcc/arm-elf/4.1.0/libgcc.a(_ge_df.o)
 .debug_frame   0x000014b4       0x3c /usr/local/bin/../lib/gcc/arm-elf/4.1.0/libgcc.a(_lt_df.o)
 .debug_frame   0x000014f0       0x2c /usr/local/bin/../lib/gcc/arm-elf/4.1.0/libgcc.a(_si_to_df.o)
 .debug_frame   0x0000151c       0x5c /usr/local/bin/../lib/gcc/arm-elf/4.1.0/libgcc.a(_df_to_si.o)
 .debug_frame   0x00001578       0x68 /usr/local/bin/../lib/gcc/arm-elf/4.1.0/libgcc.a(_pack_df.o)
 .debug_frame   0x000015e0       0x2c /usr/local/bin/../lib/gcc/arm-elf/4.1.0/libgcc.a(_unpack_df.o)
 .debug_frame   0x0000160c       0x5c /usr/local/bin/../lib/gcc/arm-elf/4.1.0/libgcc.a(_fpcmp_parts_df.o)
 .debug_frame   0x00001668       0x20 /usr/local/bin/../lib/gcc/arm-elf/4.1.0/../../../../arm-elf/lib/libg.a(errno.o)
 .debug_frame   0x00001688       0x28 /usr/local/bin/../lib/gcc/arm-elf/4.1.0/../../../../arm-elf/lib/libg.a(memcpy.o)
 .debug_frame   0x000016b0       0x20 /usr/local/bin/../lib/gcc/arm-elf/4.1.0/../../../../arm-elf/lib/libg.a(memset.o)
 .debug_frame   0x000016d0       0x58 /usr/local/bin/../lib/gcc/arm-elf/4.1.0/../../../../arm-elf/lib/libg.a(printf.o)
 .debug_frame   0x00001728       0x40 /usr/local/bin/../lib/gcc/arm-elf/4.1.0/../../../../arm-elf/lib/libg.a(puts.o)
 .debug_frame   0x00001768       0x28 /usr/local/bin/../lib/gcc/arm-elf/4.1.0/../../../../arm-elf/lib/libg.a(strcat.o)
 .debug_frame   0x00001790       0x28 /usr/local/bin/../lib/gcc/arm-elf/4.1.0/../../../../arm-elf/lib/libg.a(strchr.o)
 .debug_frame   0x000017b8       0x20 /usr/local/bin/../lib/gcc/arm-elf/4.1.0/../../../../arm-elf/lib/libg.a(strcmp.o)
 .debug_frame   0x000017d8       0x28 /usr/local/bin/../lib/gcc/arm-elf/4.1.0/../../../../arm-elf/lib/libg.a(strcpy.o)
 .debug_frame   0x00001800       0x20 /usr/local/bin/../lib/gcc/arm-elf/4.1.0/../../../../arm-elf/lib/libg.a(strlen.o)
 .debug_frame   0x00001820       0x28 /usr/local/bin/../lib/gcc/arm-elf/4.1.0/../../../../arm-elf/lib/libg.a(strncat.o)
 .debug_frame   0x00001848       0x28 /usr/local/bin/../lib/gcc/arm-elf/4.1.0/../../../../arm-elf/lib/libg.a(strncmp.o)
 .debug_frame   0x00001870       0x2c /usr/local/bin/../lib/gcc/arm-elf/4.1.0/../../../../arm-elf/lib/libg.a(strncpy.o)
 .debug_frame   0x0000189c       0x2c /usr/local/bin/../lib/gcc/arm-elf/4.1.0/../../../../arm-elf/lib/libg.a(strrchr.o)
 .debug_frame   0x000018c8       0x20 /usr/local/bin/../lib/gcc/arm-elf/4.1.0/../../../../arm-elf/lib/libg.a(strstr.o)
 .debug_frame   0x000018e8       0x20 /usr/local/bin/../lib/gcc/arm-elf/4.1.0/../../../../arm-elf/lib/libg.a(strtok.o)
 .debug_frame   0x00001908       0x3c /usr/local/bin/../lib/gcc/arm-elf/4.1.0/../../../../arm-elf/lib/libg.a(strtok_r.o)
 .debug_frame   0x00001944       0x20 /usr/local/bin/../lib/gcc/arm-elf/4.1.0/../../../../arm-elf/lib/libg.a(toupper.o)
 .debug_frame   0x00001964       0x6c /usr/local/bin/../lib/gcc/arm-elf/4.1.0/../../../../arm-elf/lib/libg.a(vfprintf.o)
 .debug_frame   0x000019d0       0x44 /usr/local/bin/../lib/gcc/arm-elf/4.1.0/../../../../arm-elf/lib/libg.a(wcrtomb.o)
 .debug_frame   0x00001a14       0x54 /usr/local/bin/../lib/gcc/arm-elf/4.1.0/../../../../arm-elf/lib/libg.a(wcsrtombs.o)
 .debug_frame   0x00001a68       0x30 /usr/local/bin/../lib/gcc/arm-elf/4.1.0/../../../../arm-elf/lib/libg.a(wctomb_r.o)
 .debug_frame   0x00001a98       0x2c /usr/local/bin/../lib/gcc/arm-elf/4.1.0/../../../../arm-elf/lib/libg.a(wsetup.o)
 .debug_frame   0x00001ac4       0x60 /usr/local/bin/../lib/gcc/arm-elf/4.1.0/../../../../arm-elf/lib/libg.a(dtoa.o)
 .debug_frame   0x00001b24       0x2c /usr/local/bin/../lib/gcc/arm-elf/4.1.0/../../../../arm-elf/lib/libg.a(fflush.o)
 .debug_frame   0x00001b50      0x114 /usr/local/bin/../lib/gcc/arm-elf/4.1.0/../../../../arm-elf/lib/libg.a(findfp.o)
 .debug_frame   0x00001c64       0x54 /usr/local/bin/../lib/gcc/arm-elf/4.1.0/../../../../arm-elf/lib/libg.a(freer.o)
 .debug_frame   0x00001cb8       0x38 /usr/local/bin/../lib/gcc/arm-elf/4.1.0/../../../../arm-elf/lib/libg.a(fvwrite.o)
 .debug_frame   0x00001cf0       0x58 /usr/local/bin/../lib/gcc/arm-elf/4.1.0/../../../../arm-elf/lib/libg.a(fwalk.o)
 .debug_frame   0x00001d48       0x6c /usr/local/bin/../lib/gcc/arm-elf/4.1.0/../../../../arm-elf/lib/libg.a(locale.o)
 .debug_frame   0x00001db4       0x30 /usr/local/bin/../lib/gcc/arm-elf/4.1.0/../../../../arm-elf/lib/libg.a(makebuf.o)
 .debug_frame   0x00001de4       0x38 /usr/local/bin/../lib/gcc/arm-elf/4.1.0/../../../../arm-elf/lib/libg.a(mallocr.o)
 .debug_frame   0x00001e1c       0x28 /usr/local/bin/../lib/gcc/arm-elf/4.1.0/../../../../arm-elf/lib/libg.a(memchr.o)
 .debug_frame   0x00001e44       0x28 /usr/local/bin/../lib/gcc/arm-elf/4.1.0/../../../../arm-elf/lib/libg.a(memmove.o)
 .debug_frame   0x00001e6c       0x30 /usr/local/bin/../lib/gcc/arm-elf/4.1.0/../../../../arm-elf/lib/libg.a(mlock.o)
 .debug_frame   0x00001e9c      0x1f0 /usr/local/bin/../lib/gcc/arm-elf/4.1.0/../../../../arm-elf/lib/libg.a(mprec.o)
 .debug_frame   0x0000208c       0x38 /usr/local/bin/../lib/gcc/arm-elf/4.1.0/../../../../arm-elf/lib/libg.a(reallocr.o)
 .debug_frame   0x000020c4       0x28 /usr/local/bin/../lib/gcc/arm-elf/4.1.0/../../../../arm-elf/lib/libg.a(s_isinf.o)
 .debug_frame   0x000020ec       0x28 /usr/local/bin/../lib/gcc/arm-elf/4.1.0/../../../../arm-elf/lib/libg.a(s_isnan.o)
 .debug_frame   0x00002114       0x70 /usr/local/bin/../lib/gcc/arm-elf/4.1.0/../../../../arm-elf/lib/libg.a(stdio.o)
 .debug_frame   0x00002184      0x2e8 /usr/local/bin/../lib/gcc/arm-elf/4.1.0/../../../../arm-elf/lib/libg.a(syscalls.o)
 .debug_frame   0x0000246c       0x28 /usr/local/bin/../lib/gcc/arm-elf/4.1.0/../../../../arm-elf/lib/libg.a(callocr.o)
 .debug_frame   0x00002494       0x3c /usr/local/bin/../lib/gcc/arm-elf/4.1.0/../../../../arm-elf/lib/libg.a(fclose.o)
 .debug_frame   0x000024d0       0x3c /usr/local/bin/../lib/gcc/arm-elf/4.1.0/libgcc.a(_eq_df.o)

.debug_loc      0x00000000     0xc069
 .debug_loc     0x00000000      0x175 main.o
 .debug_loc     0x00000175      0x222 syscalls.o
 .debug_loc     0x00000397      0x1ee ./uart/uart.o
 .debug_loc     0x00000585      0x942 ./mprintf/mprintf.o
 .debug_loc     0x00000ec7       0x31 ./timer/timer.o
 .debug_loc     0x00000ef8       0x5d ./rtc/rtc.o
 .debug_loc     0x00000f55       0x50 ./i2c/i2c.o
 .debug_loc     0x00000fa5       0x1f ./i2c/i2c_isr.o
 .debug_loc     0x00000fc4      0x25c ./mac/emac.o
 .debug_loc     0x00001220       0x1f ./mac/emac_isr.o
 .debug_loc     0x0000123f      0x2d0 ./httpd/httpd.o
 .debug_loc     0x0000150f      0x2b2 ./httpd/httpd-cgi.o
 .debug_loc     0x000017c1       0xd4 ./httpd/httpd-fs.o
 .debug_loc     0x00001895       0x9b ./sockets/cli_webSock.o
 .debug_loc     0x00001930       0xe6 ./eth/eth.o
 .debug_loc     0x00001a16      0x177 ./lcd/lcd.o
 .debug_loc     0x00001b8d      0x2dd ./cli/cli.o
 .debug_loc     0x00001e6a      0x2f7 ./cli/cli_func.o
 .debug_loc     0x00002161      0x295 ./telnetd/telnetd.o
 .debug_loc     0x000023f6      0x13a ./memb/memb.o
 .debug_loc     0x00002530       0x86 ./telnetd/shell.o
 .debug_loc     0x000025b6      0x155 ../uip/uip_arp.o
 .debug_loc     0x0000270b      0x394 ../uip/psock.o
 .debug_loc     0x00002a9f       0xca ../uip/timer.o
 .debug_loc     0x00002b69      0x4d1 ../uip/uip.o
 .debug_loc     0x0000303a      0x353 /usr/local/bin/../lib/gcc/arm-elf/4.1.0/libgcc.a(_addsub_df.o)
 .debug_loc     0x0000338d      0x239 /usr/local/bin/../lib/gcc/arm-elf/4.1.0/libgcc.a(_mul_df.o)
 .debug_loc     0x000035c6      0x179 /usr/local/bin/../lib/gcc/arm-elf/4.1.0/libgcc.a(_div_df.o)
 .debug_loc     0x0000373f       0x6f /usr/local/bin/../lib/gcc/arm-elf/4.1.0/libgcc.a(_ne_df.o)
 .debug_loc     0x000037ae       0x6f /usr/local/bin/../lib/gcc/arm-elf/4.1.0/libgcc.a(_gt_df.o)
 .debug_loc     0x0000381d       0x6f /usr/local/bin/../lib/gcc/arm-elf/4.1.0/libgcc.a(_ge_df.o)
 .debug_loc     0x0000388c       0x6f /usr/local/bin/../lib/gcc/arm-elf/4.1.0/libgcc.a(_lt_df.o)
 .debug_loc     0x000038fb       0x7f /usr/local/bin/../lib/gcc/arm-elf/4.1.0/libgcc.a(_si_to_df.o)
 .debug_loc     0x0000397a       0xb0 /usr/local/bin/../lib/gcc/arm-elf/4.1.0/libgcc.a(_df_to_si.o)
 .debug_loc     0x00003a2a      0x1ac /usr/local/bin/../lib/gcc/arm-elf/4.1.0/libgcc.a(_pack_df.o)
 .debug_loc     0x00003bd6       0xa0 /usr/local/bin/../lib/gcc/arm-elf/4.1.0/libgcc.a(_unpack_df.o)
 .debug_loc     0x00003c76       0x94 /usr/local/bin/../lib/gcc/arm-elf/4.1.0/libgcc.a(_fpcmp_parts_df.o)
 .debug_loc     0x00003d0a       0xdb /usr/local/bin/../lib/gcc/arm-elf/4.1.0/../../../../arm-elf/lib/libg.a(memcpy.o)
 .debug_loc     0x00003de5       0xa9 /usr/local/bin/../lib/gcc/arm-elf/4.1.0/../../../../arm-elf/lib/libg.a(memset.o)
 .debug_loc     0x00003e8e       0xbf /usr/local/bin/../lib/gcc/arm-elf/4.1.0/../../../../arm-elf/lib/libg.a(printf.o)
 .debug_loc     0x00003f4d       0xa3 /usr/local/bin/../lib/gcc/arm-elf/4.1.0/../../../../arm-elf/lib/libg.a(puts.o)
 .debug_loc     0x00003ff0       0x84 /usr/local/bin/../lib/gcc/arm-elf/4.1.0/../../../../arm-elf/lib/libg.a(strcat.o)
 .debug_loc     0x00004074       0xaa /usr/local/bin/../lib/gcc/arm-elf/4.1.0/../../../../arm-elf/lib/libg.a(strchr.o)
 .debug_loc     0x0000411e       0xaf /usr/local/bin/../lib/gcc/arm-elf/4.1.0/../../../../arm-elf/lib/libg.a(strcmp.o)
 .debug_loc     0x000041cd       0x79 /usr/local/bin/../lib/gcc/arm-elf/4.1.0/../../../../arm-elf/lib/libg.a(strcpy.o)
 .debug_loc     0x00004246       0x47 /usr/local/bin/../lib/gcc/arm-elf/4.1.0/../../../../arm-elf/lib/libg.a(strlen.o)
 .debug_loc     0x0000428d       0x8f /usr/local/bin/../lib/gcc/arm-elf/4.1.0/../../../../arm-elf/lib/libg.a(strncat.o)
 .debug_loc     0x0000431c      0x102 /usr/local/bin/../lib/gcc/arm-elf/4.1.0/../../../../arm-elf/lib/libg.a(strncmp.o)
 .debug_loc     0x0000441e      0x15f /usr/local/bin/../lib/gcc/arm-elf/4.1.0/../../../../arm-elf/lib/libg.a(strncpy.o)
 .debug_loc     0x0000457d       0x7c /usr/local/bin/../lib/gcc/arm-elf/4.1.0/../../../../arm-elf/lib/libg.a(strrchr.o)
 .debug_loc     0x000045f9       0x1e /usr/local/bin/../lib/gcc/arm-elf/4.1.0/../../../../arm-elf/lib/libg.a(strstr.o)
 .debug_loc     0x00004617       0x26 /usr/local/bin/../lib/gcc/arm-elf/4.1.0/../../../../arm-elf/lib/libg.a(strtok.o)
 .debug_loc     0x0000463d      0x15c /usr/local/bin/../lib/gcc/arm-elf/4.1.0/../../../../arm-elf/lib/libg.a(strtok_r.o)
 .debug_loc     0x00004799       0x13 /usr/local/bin/../lib/gcc/arm-elf/4.1.0/../../../../arm-elf/lib/libg.a(toupper.o)
 .debug_loc     0x000047ac     0x1eef /usr/local/bin/../lib/gcc/arm-elf/4.1.0/../../../../arm-elf/lib/libg.a(vfprintf.o)
 .debug_loc     0x0000669b      0x145 /usr/local/bin/../lib/gcc/arm-elf/4.1.0/../../../../arm-elf/lib/libg.a(wcrtomb.o)
 .debug_loc     0x000067e0      0x2b2 /usr/local/bin/../lib/gcc/arm-elf/4.1.0/../../../../arm-elf/lib/libg.a(wcsrtombs.o)
 .debug_loc     0x00006a92      0x248 /usr/local/bin/../lib/gcc/arm-elf/4.1.0/../../../../arm-elf/lib/libg.a(wctomb_r.o)
 .debug_loc     0x00006cda       0x3d /usr/local/bin/../lib/gcc/arm-elf/4.1.0/../../../../arm-elf/lib/libg.a(wsetup.o)
 .debug_loc     0x00006d17     0x1665 /usr/local/bin/../lib/gcc/arm-elf/4.1.0/../../../../arm-elf/lib/libg.a(dtoa.o)
 .debug_loc     0x0000837c       0xad /usr/local/bin/../lib/gcc/arm-elf/4.1.0/../../../../arm-elf/lib/libg.a(fflush.o)
 .debug_loc     0x00008429      0x20c /usr/local/bin/../lib/gcc/arm-elf/4.1.0/../../../../arm-elf/lib/libg.a(findfp.o)
 .debug_loc     0x00008635      0x38f /usr/local/bin/../lib/gcc/arm-elf/4.1.0/../../../../arm-elf/lib/libg.a(freer.o)
 .debug_loc     0x000089c4      0x328 /usr/local/bin/../lib/gcc/arm-elf/4.1.0/../../../../arm-elf/lib/libg.a(fvwrite.o)
 .debug_loc     0x00008cec      0x17b /usr/local/bin/../lib/gcc/arm-elf/4.1.0/../../../../arm-elf/lib/libg.a(fwalk.o)
 .debug_loc     0x00008e67       0xe9 /usr/local/bin/../lib/gcc/arm-elf/4.1.0/../../../../arm-elf/lib/libg.a(locale.o)
 .debug_loc     0x00008f50       0xa7 /usr/local/bin/../lib/gcc/arm-elf/4.1.0/../../../../arm-elf/lib/libg.a(makebuf.o)
 .debug_loc     0x00008ff7      0x795 /usr/local/bin/../lib/gcc/arm-elf/4.1.0/../../../../arm-elf/lib/libg.a(mallocr.o)
 .debug_loc     0x0000978c      0x193 /usr/local/bin/../lib/gcc/arm-elf/4.1.0/../../../../arm-elf/lib/libg.a(memchr.o)
 .debug_loc     0x0000991f      0x151 /usr/local/bin/../lib/gcc/arm-elf/4.1.0/../../../../arm-elf/lib/libg.a(memmove.o)
 .debug_loc     0x00009a70      0xffc /usr/local/bin/../lib/gcc/arm-elf/4.1.0/../../../../arm-elf/lib/libg.a(mprec.o)
 .debug_loc     0x0000aa6c      0x922 /usr/local/bin/../lib/gcc/arm-elf/4.1.0/../../../../arm-elf/lib/libg.a(reallocr.o)
 .debug_loc     0x0000b38e       0x6d /usr/local/bin/../lib/gcc/arm-elf/4.1.0/../../../../arm-elf/lib/libg.a(s_isinf.o)
 .debug_loc     0x0000b3fb       0x4f /usr/local/bin/../lib/gcc/arm-elf/4.1.0/../../../../arm-elf/lib/libg.a(s_isnan.o)
 .debug_loc     0x0000b44a      0x1a4 /usr/local/bin/../lib/gcc/arm-elf/4.1.0/../../../../arm-elf/lib/libg.a(stdio.o)
 .debug_loc     0x0000b5ee      0x894 /usr/local/bin/../lib/gcc/arm-elf/4.1.0/../../../../arm-elf/lib/libg.a(syscalls.o)
 .debug_loc     0x0000be82       0xd6 /usr/local/bin/../lib/gcc/arm-elf/4.1.0/../../../../arm-elf/lib/libg.a(callocr.o)
 .debug_loc     0x0000bf58       0xa2 /usr/local/bin/../lib/gcc/arm-elf/4.1.0/../../../../arm-elf/lib/libg.a(fclose.o)
 .debug_loc     0x0000bffa       0x6f /usr/local/bin/../lib/gcc/arm-elf/4.1.0/libgcc.a(_eq_df.o)

.debug_pubnames
                0x00000000     0x1e8b
 .debug_pubnames
                0x00000000      0x14b main.o
 .debug_pubnames
                0x0000014b       0x7a syscalls.o
 .debug_pubnames
                0x000001c5       0x87 ./uart/uart.o
 .debug_pubnames
                0x0000024c       0x77 ./mprintf/mprintf.o
 .debug_pubnames
                0x000002c3       0x72 ./timer/timer.o
 .debug_pubnames
                0x00000335       0x97 ./rtc/rtc.o
 .debug_pubnames
                0x000003cc       0xf2 ./i2c/i2c.o
 .debug_pubnames
                0x000004be       0x28 ./i2c/i2c_isr.o
 .debug_pubnames
                0x000004e6      0x159 ./mac/emac.o
 .debug_pubnames
                0x0000063f       0x27 ./mac/emac_isr.o
 .debug_pubnames
                0x00000666       0x33 ./httpd/httpd.o
 .debug_pubnames
                0x00000699       0x38 ./httpd/httpd-cgi.o
 .debug_pubnames
                0x000006d1       0xd9 ./httpd/httpd-fs.o
 .debug_pubnames
                0x000007aa      0x271 ./httpd/http-strings.o
 .debug_pubnames
                0x00000a1b       0x7f ./sockets/cli_webSock.o
 .debug_pubnames
                0x00000a9a       0xe8 ./eth/eth.o
 .debug_pubnames
                0x00000b82       0x77 ./lcd/lcd.o
 .debug_pubnames
                0x00000bf9       0xce ./cli/cli.o
 .debug_pubnames
                0x00000cc7       0xf2 ./cli/cli_func.o
 .debug_pubnames
                0x00000db9       0xbb ./telnetd/telnetd.o
 .debug_pubnames
                0x00000e74       0x3d ./memb/memb.o
 .debug_pubnames
                0x00000eb1       0x94 ./telnetd/shell.o
 .debug_pubnames
                0x00000f45       0x68 ../uip/uip_arp.o
 .debug_pubnames
                0x00000fad       0x90 ../uip/psock.o
 .debug_pubnames
                0x0000103d       0x54 ../uip/timer.o
 .debug_pubnames
                0x00001091      0x1b6 ../uip/uip.o
 .debug_pubnames
                0x00001247       0x2c /usr/local/bin/../lib/gcc/arm-elf/4.1.0/libgcc.a(_addsub_df.o)
 .debug_pubnames
                0x00001273       0x1f /usr/local/bin/../lib/gcc/arm-elf/4.1.0/libgcc.a(_mul_df.o)
 .debug_pubnames
                0x00001292       0x1f /usr/local/bin/../lib/gcc/arm-elf/4.1.0/libgcc.a(_div_df.o)
 .debug_pubnames
                0x000012b1       0x1e /usr/local/bin/../lib/gcc/arm-elf/4.1.0/libgcc.a(_ne_df.o)
 .debug_pubnames
                0x000012cf       0x1e /usr/local/bin/../lib/gcc/arm-elf/4.1.0/libgcc.a(_gt_df.o)
 .debug_pubnames
                0x000012ed       0x1e /usr/local/bin/../lib/gcc/arm-elf/4.1.0/libgcc.a(_ge_df.o)
 .debug_pubnames
                0x0000130b       0x1e /usr/local/bin/../lib/gcc/arm-elf/4.1.0/libgcc.a(_lt_df.o)
 .debug_pubnames
                0x00001329       0x22 /usr/local/bin/../lib/gcc/arm-elf/4.1.0/libgcc.a(_si_to_df.o)
 .debug_pubnames
                0x0000134b       0x20 /usr/local/bin/../lib/gcc/arm-elf/4.1.0/libgcc.a(_df_to_si.o)
 .debug_pubnames
                0x0000136b       0x22 /usr/local/bin/../lib/gcc/arm-elf/4.1.0/libgcc.a(_thenan_df.o)
 .debug_pubnames
                0x0000138d       0x1f /usr/local/bin/../lib/gcc/arm-elf/4.1.0/libgcc.a(_pack_df.o)
 .debug_pubnames
                0x000013ac       0x21 /usr/local/bin/../lib/gcc/arm-elf/4.1.0/libgcc.a(_unpack_df.o)
 .debug_pubnames
                0x000013cd       0x26 /usr/local/bin/../lib/gcc/arm-elf/4.1.0/libgcc.a(_fpcmp_parts_df.o)
 .debug_pubnames
                0x000013f3       0x1e /usr/local/bin/../lib/gcc/arm-elf/4.1.0/../../../../arm-elf/lib/libg.a(errno.o)
 .debug_pubnames
                0x00001411       0x39 /usr/local/bin/../lib/gcc/arm-elf/4.1.0/../../../../arm-elf/lib/libg.a(impure.o)
 .debug_pubnames
                0x0000144a       0x1d /usr/local/bin/../lib/gcc/arm-elf/4.1.0/../../../../arm-elf/lib/libg.a(memcpy.o)
 .debug_pubnames
                0x00001467       0x1d /usr/local/bin/../lib/gcc/arm-elf/4.1.0/../../../../arm-elf/lib/libg.a(memset.o)
 .debug_pubnames
                0x00001484       0x2b /usr/local/bin/../lib/gcc/arm-elf/4.1.0/../../../../arm-elf/lib/libg.a(printf.o)
 .debug_pubnames
                0x000014af       0x27 /usr/local/bin/../lib/gcc/arm-elf/4.1.0/../../../../arm-elf/lib/libg.a(puts.o)
 .debug_pubnames
                0x000014d6       0x1d /usr/local/bin/../lib/gcc/arm-elf/4.1.0/../../../../arm-elf/lib/libg.a(strcat.o)
 .debug_pubnames
                0x000014f3       0x1d /usr/local/bin/../lib/gcc/arm-elf/4.1.0/../../../../arm-elf/lib/libg.a(strchr.o)
 .debug_pubnames
                0x00001510       0x1d /usr/local/bin/../lib/gcc/arm-elf/4.1.0/../../../../arm-elf/lib/libg.a(strcmp.o)
 .debug_pubnames
                0x0000152d       0x1d /usr/local/bin/../lib/gcc/arm-elf/4.1.0/../../../../arm-elf/lib/libg.a(strcpy.o)
 .debug_pubnames
                0x0000154a       0x1d /usr/local/bin/../lib/gcc/arm-elf/4.1.0/../../../../arm-elf/lib/libg.a(strlen.o)
 .debug_pubnames
                0x00001567       0x1e /usr/local/bin/../lib/gcc/arm-elf/4.1.0/../../../../arm-elf/lib/libg.a(strncat.o)
 .debug_pubnames
                0x00001585       0x1e /usr/local/bin/../lib/gcc/arm-elf/4.1.0/../../../../arm-elf/lib/libg.a(strncmp.o)
 .debug_pubnames
                0x000015a3       0x1e /usr/local/bin/../lib/gcc/arm-elf/4.1.0/../../../../arm-elf/lib/libg.a(strncpy.o)
 .debug_pubnames
                0x000015c1       0x1e /usr/local/bin/../lib/gcc/arm-elf/4.1.0/../../../../arm-elf/lib/libg.a(strrchr.o)
 .debug_pubnames
                0x000015df       0x1d /usr/local/bin/../lib/gcc/arm-elf/4.1.0/../../../../arm-elf/lib/libg.a(strstr.o)
 .debug_pubnames
                0x000015fc       0x1d /usr/local/bin/../lib/gcc/arm-elf/4.1.0/../../../../arm-elf/lib/libg.a(strtok.o)
 .debug_pubnames
                0x00001619       0x2e /usr/local/bin/../lib/gcc/arm-elf/4.1.0/../../../../arm-elf/lib/libg.a(strtok_r.o)
 .debug_pubnames
                0x00001647       0x1e /usr/local/bin/../lib/gcc/arm-elf/4.1.0/../../../../arm-elf/lib/libg.a(toupper.o)
 .debug_pubnames
                0x00001665       0x2f /usr/local/bin/../lib/gcc/arm-elf/4.1.0/../../../../arm-elf/lib/libg.a(vfprintf.o)
 .debug_pubnames
                0x00001694       0x2d /usr/local/bin/../lib/gcc/arm-elf/4.1.0/../../../../arm-elf/lib/libg.a(wcrtomb.o)
 .debug_pubnames
                0x000016c1       0x31 /usr/local/bin/../lib/gcc/arm-elf/4.1.0/../../../../arm-elf/lib/libg.a(wcsrtombs.o)
 .debug_pubnames
                0x000016f2       0x20 /usr/local/bin/../lib/gcc/arm-elf/4.1.0/../../../../arm-elf/lib/libg.a(wctomb_r.o)
 .debug_pubnames
                0x00001712       0x20 /usr/local/bin/../lib/gcc/arm-elf/4.1.0/../../../../arm-elf/lib/libg.a(wsetup.o)
 .debug_pubnames
                0x00001732       0x2e /usr/local/bin/../lib/gcc/arm-elf/4.1.0/../../../../arm-elf/lib/libg.a(ctype_.o)
 .debug_pubnames
                0x00001760       0x1e /usr/local/bin/../lib/gcc/arm-elf/4.1.0/../../../../arm-elf/lib/libg.a(dtoa.o)
 .debug_pubnames
                0x0000177e       0x1d /usr/local/bin/../lib/gcc/arm-elf/4.1.0/../../../../arm-elf/lib/libg.a(fflush.o)
 .debug_pubnames
                0x0000179b       0xdb /usr/local/bin/../lib/gcc/arm-elf/4.1.0/../../../../arm-elf/lib/libg.a(findfp.o)
 .debug_pubnames
                0x00001876       0x31 /usr/local/bin/../lib/gcc/arm-elf/4.1.0/../../../../arm-elf/lib/libg.a(freer.o)
 .debug_pubnames
                0x000018a7       0x21 /usr/local/bin/../lib/gcc/arm-elf/4.1.0/../../../../arm-elf/lib/libg.a(fvwrite.o)
 .debug_pubnames
                0x000018c8       0x2e /usr/local/bin/../lib/gcc/arm-elf/4.1.0/../../../../arm-elf/lib/libg.a(fwalk.o)
 .debug_pubnames
                0x000018f6       0xc3 /usr/local/bin/../lib/gcc/arm-elf/4.1.0/../../../../arm-elf/lib/libg.a(locale.o)
 .debug_pubnames
                0x000019b9       0x21 /usr/local/bin/../lib/gcc/arm-elf/4.1.0/../../../../arm-elf/lib/libg.a(makebuf.o)
 .debug_pubnames
                0x000019da       0xce /usr/local/bin/../lib/gcc/arm-elf/4.1.0/../../../../arm-elf/lib/libg.a(mallocr.o)
 .debug_pubnames
                0x00001aa8       0x1d /usr/local/bin/../lib/gcc/arm-elf/4.1.0/../../../../arm-elf/lib/libg.a(memchr.o)
 .debug_pubnames
                0x00001ac5       0x1e /usr/local/bin/../lib/gcc/arm-elf/4.1.0/../../../../arm-elf/lib/libg.a(memmove.o)
 .debug_pubnames
                0x00001ae3       0x38 /usr/local/bin/../lib/gcc/arm-elf/4.1.0/../../../../arm-elf/lib/libg.a(mlock.o)
 .debug_pubnames
                0x00001b1b      0x112 /usr/local/bin/../lib/gcc/arm-elf/4.1.0/../../../../arm-elf/lib/libg.a(mprec.o)
 .debug_pubnames
                0x00001c2d       0x21 /usr/local/bin/../lib/gcc/arm-elf/4.1.0/../../../../arm-elf/lib/libg.a(reallocr.o)
 .debug_pubnames
                0x00001c4e       0x1c /usr/local/bin/../lib/gcc/arm-elf/4.1.0/../../../../arm-elf/lib/libg.a(s_isinf.o)
 .debug_pubnames
                0x00001c6a       0x1c /usr/local/bin/../lib/gcc/arm-elf/4.1.0/../../../../arm-elf/lib/libg.a(s_isnan.o)
 .debug_pubnames
                0x00001c86       0x44 /usr/local/bin/../lib/gcc/arm-elf/4.1.0/../../../../arm-elf/lib/libg.a(stdio.o)
 .debug_pubnames
                0x00001cca      0x158 /usr/local/bin/../lib/gcc/arm-elf/4.1.0/../../../../arm-elf/lib/libg.a(syscalls.o)
 .debug_pubnames
                0x00001e22       0x20 /usr/local/bin/../lib/gcc/arm-elf/4.1.0/../../../../arm-elf/lib/libg.a(callocr.o)
 .debug_pubnames
                0x00001e42       0x2b /usr/local/bin/../lib/gcc/arm-elf/4.1.0/../../../../arm-elf/lib/libg.a(fclose.o)
 .debug_pubnames
                0x00001e6d       0x1e /usr/local/bin/../lib/gcc/arm-elf/4.1.0/libgcc.a(_eq_df.o)

.debug_aranges  0x00000000      0xaa8
 .debug_aranges
                0x00000000       0x20 main.o
 .debug_aranges
                0x00000020       0x20 syscalls.o
 .debug_aranges
                0x00000040       0x20 ./uart/uart.o
 .debug_aranges
                0x00000060       0x20 ./mprintf/mprintf.o
 .debug_aranges
                0x00000080       0x20 ./timer/timer.o
 .debug_aranges
                0x000000a0       0x20 ./rtc/rtc.o
 .debug_aranges
                0x000000c0       0x20 ./i2c/i2c.o
 .debug_aranges
                0x000000e0       0x20 ./i2c/i2c_isr.o
 .debug_aranges
                0x00000100       0x20 ./mac/emac.o
 .debug_aranges
                0x00000120       0x20 ./mac/emac_isr.o
 .debug_aranges
                0x00000140       0x20 ./httpd/httpd.o
 .debug_aranges
                0x00000160       0x20 ./httpd/httpd-cgi.o
 .debug_aranges
                0x00000180       0x20 ./httpd/httpd-fs.o
 .debug_aranges
                0x000001a0       0x20 ./sockets/cli_webSock.o
 .debug_aranges
                0x000001c0       0x20 ./eth/eth.o
 .debug_aranges
                0x000001e0       0x20 ./lcd/lcd.o
 .debug_aranges
                0x00000200       0x20 ./cli/cli.o
 .debug_aranges
                0x00000220       0x20 ./cli/cli_func.o
 .debug_aranges
                0x00000240       0x20 ./telnetd/telnetd.o
 .debug_aranges
                0x00000260       0x20 ./memb/memb.o
 .debug_aranges
                0x00000280       0x20 ./telnetd/shell.o
 .debug_aranges
                0x000002a0       0x20 ../uip/uip_arp.o
 .debug_aranges
                0x000002c0       0x20 ../uip/psock.o
 .debug_aranges
                0x000002e0       0x20 ../uip/timer.o
 .debug_aranges
                0x00000300       0x20 ../uip/uip.o
 .debug_aranges
                0x00000320       0x28 /tmp/ccofrgum.o
 .debug_aranges
                0x00000348       0x20 /usr/local/bin/../lib/gcc/arm-elf/4.1.0/libgcc.a(_udivsi3.o)
 .debug_aranges
                0x00000368       0x20 /usr/local/bin/../lib/gcc/arm-elf/4.1.0/libgcc.a(_umodsi3.o)
 .debug_aranges
                0x00000388       0x20 /usr/local/bin/../lib/gcc/arm-elf/4.1.0/libgcc.a(_dvmd_tls.o)
 .debug_aranges
                0x000003a8       0x20 /usr/local/bin/../lib/gcc/arm-elf/4.1.0/libgcc.a(_addsub_df.o)
 .debug_aranges
                0x000003c8       0x20 /usr/local/bin/../lib/gcc/arm-elf/4.1.0/libgcc.a(_mul_df.o)
 .debug_aranges
                0x000003e8       0x20 /usr/local/bin/../lib/gcc/arm-elf/4.1.0/libgcc.a(_div_df.o)
 .debug_aranges
                0x00000408       0x20 /usr/local/bin/../lib/gcc/arm-elf/4.1.0/libgcc.a(_ne_df.o)
 .debug_aranges
                0x00000428       0x20 /usr/local/bin/../lib/gcc/arm-elf/4.1.0/libgcc.a(_gt_df.o)
 .debug_aranges
                0x00000448       0x20 /usr/local/bin/../lib/gcc/arm-elf/4.1.0/libgcc.a(_ge_df.o)
 .debug_aranges
                0x00000468       0x20 /usr/local/bin/../lib/gcc/arm-elf/4.1.0/libgcc.a(_lt_df.o)
 .debug_aranges
                0x00000488       0x20 /usr/local/bin/../lib/gcc/arm-elf/4.1.0/libgcc.a(_si_to_df.o)
 .debug_aranges
                0x000004a8       0x20 /usr/local/bin/../lib/gcc/arm-elf/4.1.0/libgcc.a(_df_to_si.o)
 .debug_aranges
                0x000004c8       0x20 /usr/local/bin/../lib/gcc/arm-elf/4.1.0/libgcc.a(_pack_df.o)
 .debug_aranges
                0x000004e8       0x20 /usr/local/bin/../lib/gcc/arm-elf/4.1.0/libgcc.a(_unpack_df.o)
 .debug_aranges
                0x00000508       0x20 /usr/local/bin/../lib/gcc/arm-elf/4.1.0/libgcc.a(_fpcmp_parts_df.o)
 .debug_aranges
                0x00000528       0x20 /usr/local/bin/../lib/gcc/arm-elf/4.1.0/../../../../arm-elf/lib/libg.a(errno.o)
 .debug_aranges
                0x00000548       0x20 /usr/local/bin/../lib/gcc/arm-elf/4.1.0/../../../../arm-elf/lib/libg.a(memcpy.o)
 .debug_aranges
                0x00000568       0x20 /usr/local/bin/../lib/gcc/arm-elf/4.1.0/../../../../arm-elf/lib/libg.a(memset.o)
 .debug_aranges
                0x00000588       0x20 /usr/local/bin/../lib/gcc/arm-elf/4.1.0/../../../../arm-elf/lib/libg.a(printf.o)
 .debug_aranges
                0x000005a8       0x20 /usr/local/bin/../lib/gcc/arm-elf/4.1.0/../../../../arm-elf/lib/libg.a(puts.o)
 .debug_aranges
                0x000005c8       0x20 /usr/local/bin/../lib/gcc/arm-elf/4.1.0/../../../../arm-elf/lib/libg.a(strcat.o)
 .debug_aranges
                0x000005e8       0x20 /usr/local/bin/../lib/gcc/arm-elf/4.1.0/../../../../arm-elf/lib/libg.a(strchr.o)
 .debug_aranges
                0x00000608       0x20 /usr/local/bin/../lib/gcc/arm-elf/4.1.0/../../../../arm-elf/lib/libg.a(strcmp.o)
 .debug_aranges
                0x00000628       0x20 /usr/local/bin/../lib/gcc/arm-elf/4.1.0/../../../../arm-elf/lib/libg.a(strcpy.o)
 .debug_aranges
                0x00000648       0x20 /usr/local/bin/../lib/gcc/arm-elf/4.1.0/../../../../arm-elf/lib/libg.a(strlen.o)
 .debug_aranges
                0x00000668       0x20 /usr/local/bin/../lib/gcc/arm-elf/4.1.0/../../../../arm-elf/lib/libg.a(strncat.o)
 .debug_aranges
                0x00000688       0x20 /usr/local/bin/../lib/gcc/arm-elf/4.1.0/../../../../arm-elf/lib/libg.a(strncmp.o)
 .debug_aranges
                0x000006a8       0x20 /usr/local/bin/../lib/gcc/arm-elf/4.1.0/../../../../arm-elf/lib/libg.a(strncpy.o)
 .debug_aranges
                0x000006c8       0x20 /usr/local/bin/../lib/gcc/arm-elf/4.1.0/../../../../arm-elf/lib/libg.a(strrchr.o)
 .debug_aranges
                0x000006e8       0x20 /usr/local/bin/../lib/gcc/arm-elf/4.1.0/../../../../arm-elf/lib/libg.a(strstr.o)
 .debug_aranges
                0x00000708       0x20 /usr/local/bin/../lib/gcc/arm-elf/4.1.0/../../../../arm-elf/lib/libg.a(strtok.o)
 .debug_aranges
                0x00000728       0x20 /usr/local/bin/../lib/gcc/arm-elf/4.1.0/../../../../arm-elf/lib/libg.a(strtok_r.o)
 .debug_aranges
                0x00000748       0x20 /usr/local/bin/../lib/gcc/arm-elf/4.1.0/../../../../arm-elf/lib/libg.a(toupper.o)
 .debug_aranges
                0x00000768       0x20 /usr/local/bin/../lib/gcc/arm-elf/4.1.0/../../../../arm-elf/lib/libg.a(vfprintf.o)
 .debug_aranges
                0x00000788       0x20 /usr/local/bin/../lib/gcc/arm-elf/4.1.0/../../../../arm-elf/lib/libg.a(wcrtomb.o)
 .debug_aranges
                0x000007a8       0x20 /usr/local/bin/../lib/gcc/arm-elf/4.1.0/../../../../arm-elf/lib/libg.a(wcsrtombs.o)
 .debug_aranges
                0x000007c8       0x20 /usr/local/bin/../lib/gcc/arm-elf/4.1.0/../../../../arm-elf/lib/libg.a(wctomb_r.o)
 .debug_aranges
                0x000007e8       0x20 /usr/local/bin/../lib/gcc/arm-elf/4.1.0/../../../../arm-elf/lib/libg.a(wsetup.o)
 .debug_aranges
                0x00000808       0x20 /usr/local/bin/../lib/gcc/arm-elf/4.1.0/../../../../arm-elf/lib/libg.a(dtoa.o)
 .debug_aranges
                0x00000828       0x20 /usr/local/bin/../lib/gcc/arm-elf/4.1.0/../../../../arm-elf/lib/libg.a(fflush.o)
 .debug_aranges
                0x00000848       0x20 /usr/local/bin/../lib/gcc/arm-elf/4.1.0/../../../../arm-elf/lib/libg.a(findfp.o)
 .debug_aranges
                0x00000868       0x20 /usr/local/bin/../lib/gcc/arm-elf/4.1.0/../../../../arm-elf/lib/libg.a(freer.o)
 .debug_aranges
                0x00000888       0x20 /usr/local/bin/../lib/gcc/arm-elf/4.1.0/../../../../arm-elf/lib/libg.a(fvwrite.o)
 .debug_aranges
                0x000008a8       0x20 /usr/local/bin/../lib/gcc/arm-elf/4.1.0/../../../../arm-elf/lib/libg.a(fwalk.o)
 .debug_aranges
                0x000008c8       0x20 /usr/local/bin/../lib/gcc/arm-elf/4.1.0/../../../../arm-elf/lib/libg.a(locale.o)
 .debug_aranges
                0x000008e8       0x20 /usr/local/bin/../lib/gcc/arm-elf/4.1.0/../../../../arm-elf/lib/libg.a(makebuf.o)
 .debug_aranges
                0x00000908       0x20 /usr/local/bin/../lib/gcc/arm-elf/4.1.0/../../../../arm-elf/lib/libg.a(mallocr.o)
 .debug_aranges
                0x00000928       0x20 /usr/local/bin/../lib/gcc/arm-elf/4.1.0/../../../../arm-elf/lib/libg.a(memchr.o)
 .debug_aranges
                0x00000948       0x20 /usr/local/bin/../lib/gcc/arm-elf/4.1.0/../../../../arm-elf/lib/libg.a(memmove.o)
 .debug_aranges
                0x00000968       0x20 /usr/local/bin/../lib/gcc/arm-elf/4.1.0/../../../../arm-elf/lib/libg.a(mlock.o)
 .debug_aranges
                0x00000988       0x20 /usr/local/bin/../lib/gcc/arm-elf/4.1.0/../../../../arm-elf/lib/libg.a(mprec.o)
 .debug_aranges
                0x000009a8       0x20 /usr/local/bin/../lib/gcc/arm-elf/4.1.0/../../../../arm-elf/lib/libg.a(reallocr.o)
 .debug_aranges
                0x000009c8       0x20 /usr/local/bin/../lib/gcc/arm-elf/4.1.0/../../../../arm-elf/lib/libg.a(s_isinf.o)
 .debug_aranges
                0x000009e8       0x20 /usr/local/bin/../lib/gcc/arm-elf/4.1.0/../../../../arm-elf/lib/libg.a(s_isnan.o)
 .debug_aranges
                0x00000a08       0x20 /usr/local/bin/../lib/gcc/arm-elf/4.1.0/../../../../arm-elf/lib/libg.a(stdio.o)
 .debug_aranges
                0x00000a28       0x20 /usr/local/bin/../lib/gcc/arm-elf/4.1.0/../../../../arm-elf/lib/libg.a(syscalls.o)
 .debug_aranges
                0x00000a48       0x20 /usr/local/bin/../lib/gcc/arm-elf/4.1.0/../../../../arm-elf/lib/libg.a(callocr.o)
 .debug_aranges
                0x00000a68       0x20 /usr/local/bin/../lib/gcc/arm-elf/4.1.0/../../../../arm-elf/lib/libg.a(fclose.o)
 .debug_aranges
                0x00000a88       0x20 /usr/local/bin/../lib/gcc/arm-elf/4.1.0/libgcc.a(_eq_df.o)

.debug_str      0x00000000     0x3562
 .debug_str     0x00000000      0x23d main.o
                                0x297 (size before relaxing)
 .debug_str     0x0000023d      0x45a syscalls.o
                                0x5a7 (size before relaxing)
 .debug_str     0x00000697       0x8d ./uart/uart.o
                                 0xdc (size before relaxing)
 .debug_str     0x00000724       0x9a ./mprintf/mprintf.o
                                0x110 (size before relaxing)
 .debug_str     0x000007be       0x6c ./timer/timer.o
                                 0xad (size before relaxing)
 .debug_str     0x0000082a       0x75 ./rtc/rtc.o
                                0x111 (size before relaxing)
 .debug_str     0x0000089f       0x91 ./i2c/i2c.o
                                0x110 (size before relaxing)
 .debug_str     0x00000930       0x2a ./i2c/i2c_isr.o
                                 0xc8 (size before relaxing)
 .debug_str     0x0000095a      0x156 ./mac/emac.o
                                0x1e8 (size before relaxing)
 .debug_str     0x00000ab0       0x20 ./mac/emac_isr.o
                                 0x54 (size before relaxing)
 .debug_str     0x00000ad0      0x367 ./httpd/httpd.o
                                0x448 (size before relaxing)
 .debug_str     0x00000e37       0xea ./httpd/httpd-cgi.o
                                0x2d6 (size before relaxing)
 .debug_str     0x00000f21      0x16f ./httpd/httpd-fs.o
                                0x270 (size before relaxing)
 .debug_str     0x00001090       0xbf ./httpd/http-strings.o
                                0x237 (size before relaxing)
 .debug_str     0x0000114f       0x87 ./sockets/cli_webSock.o
                                0x1de (size before relaxing)
 .debug_str     0x000011d6       0xe8 ./eth/eth.o
                                0x2e1 (size before relaxing)
 .debug_str     0x000012be       0x6d ./lcd/lcd.o
                                0x12a (size before relaxing)
 .debug_str     0x0000132b       0xce ./cli/cli.o
                                0x247 (size before relaxing)
 .debug_str     0x000013f9       0x73 ./cli/cli_func.o
                                0x268 (size before relaxing)
 .debug_str     0x0000146c        0xc ./cli/debug.o
                                 0xc9 (size before relaxing)
 .debug_str     0x00001478       0xf6 ./telnetd/telnetd.o
                                0x316 (size before relaxing)
 .debug_str     0x0000156e       0x30 ./memb/memb.o
                                 0xf8 (size before relaxing)
 .debug_str     0x0000159e       0x55 ./telnetd/shell.o
                                0x192 (size before relaxing)
 .debug_str     0x000015f3       0xaf ../uip/uip_arp.o
                                0x215 (size before relaxing)
 .debug_str     0x000016a2       0xcb ../uip/psock.o
                                0x2f2 (size before relaxing)
 .debug_str     0x0000176d       0x41 ../uip/timer.o
                                 0xa9 (size before relaxing)
 .debug_str     0x000017ae      0x279 ../uip/uip.o
                                0x4b9 (size before relaxing)
 .debug_str     0x00001a27      0x173 /usr/local/bin/../lib/gcc/arm-elf/4.1.0/libgcc.a(_addsub_df.o)
                                0x220 (size before relaxing)
 .debug_str     0x00001b9a       0x45 /usr/local/bin/../lib/gcc/arm-elf/4.1.0/libgcc.a(_mul_df.o)
                                0x1f8 (size before relaxing)
 .debug_str     0x00001bdf       0x35 /usr/local/bin/../lib/gcc/arm-elf/4.1.0/libgcc.a(_div_df.o)
                                0x1e8 (size before relaxing)
 .debug_str     0x00001c14        0x8 /usr/local/bin/../lib/gcc/arm-elf/4.1.0/libgcc.a(_ne_df.o)
                                0x1b5 (size before relaxing)
 .debug_str     0x00001c1c        0x8 /usr/local/bin/../lib/gcc/arm-elf/4.1.0/libgcc.a(_gt_df.o)
                                0x1b5 (size before relaxing)
 .debug_str     0x00001c24        0x8 /usr/local/bin/../lib/gcc/arm-elf/4.1.0/libgcc.a(_ge_df.o)
                                0x1b5 (size before relaxing)
 .debug_str     0x00001c2c        0x8 /usr/local/bin/../lib/gcc/arm-elf/4.1.0/libgcc.a(_lt_df.o)
                                0x1b5 (size before relaxing)
 .debug_str     0x00001c34        0xc /usr/local/bin/../lib/gcc/arm-elf/4.1.0/libgcc.a(_si_to_df.o)
                                0x183 (size before relaxing)
 .debug_str     0x00001c40        0xa /usr/local/bin/../lib/gcc/arm-elf/4.1.0/libgcc.a(_df_to_si.o)
                                0x1be (size before relaxing)
 .debug_str     0x00001c4a        0x0 /usr/local/bin/../lib/gcc/arm-elf/4.1.0/libgcc.a(_thenan_df.o)
                                0x15a (size before relaxing)
 .debug_str     0x00001c4a       0x10 /usr/local/bin/../lib/gcc/arm-elf/4.1.0/libgcc.a(_pack_df.o)
                                0x1bd (size before relaxing)
 .debug_str     0x00001c5a       0x13 /usr/local/bin/../lib/gcc/arm-elf/4.1.0/libgcc.a(_unpack_df.o)
                                0x1a7 (size before relaxing)
 .debug_str     0x00001c6d       0x10 /usr/local/bin/../lib/gcc/arm-elf/4.1.0/libgcc.a(_fpcmp_parts_df.o)
                                0x17d (size before relaxing)
 .debug_str     0x00001c7d       0x8b /usr/local/bin/../lib/gcc/arm-elf/4.1.0/../../../../arm-elf/lib/libg.a(errno.o)
                                0x4b5 (size before relaxing)
 .debug_str     0x00001d08       0xa3 /usr/local/bin/../lib/gcc/arm-elf/4.1.0/../../../../arm-elf/lib/libg.a(impure.o)
                                0x4cd (size before relaxing)
 .debug_str     0x00001dab       0xbb /usr/local/bin/../lib/gcc/arm-elf/4.1.0/../../../../arm-elf/lib/libg.a(memcpy.o)
                                 0xe7 (size before relaxing)
 .debug_str     0x00001e66       0x54 /usr/local/bin/../lib/gcc/arm-elf/4.1.0/../../../../arm-elf/lib/libg.a(memset.o)
                                0x131 (size before relaxing)
 .debug_str     0x00001eba       0x8e /usr/local/bin/../lib/gcc/arm-elf/4.1.0/../../../../arm-elf/lib/libg.a(printf.o)
                                0x4e2 (size before relaxing)
 .debug_str     0x00001f48       0x86 /usr/local/bin/../lib/gcc/arm-elf/4.1.0/../../../../arm-elf/lib/libg.a(puts.o)
                                0x508 (size before relaxing)
 .debug_str     0x00001fce       0x52 /usr/local/bin/../lib/gcc/arm-elf/4.1.0/../../../../arm-elf/lib/libg.a(strcat.o)
                                0x121 (size before relaxing)
 .debug_str     0x00002020       0x47 /usr/local/bin/../lib/gcc/arm-elf/4.1.0/../../../../arm-elf/lib/libg.a(strchr.o)
                                0x128 (size before relaxing)
 .debug_str     0x00002067       0x40 /usr/local/bin/../lib/gcc/arm-elf/4.1.0/../../../../arm-elf/lib/libg.a(strcmp.o)
                                0x116 (size before relaxing)
 .debug_str     0x000020a7       0x47 /usr/local/bin/../lib/gcc/arm-elf/4.1.0/../../../../arm-elf/lib/libg.a(strcpy.o)
                                0x138 (size before relaxing)
 .debug_str     0x000020ee       0x47 /usr/local/bin/../lib/gcc/arm-elf/4.1.0/../../../../arm-elf/lib/libg.a(strlen.o)
                                0x130 (size before relaxing)
 .debug_str     0x00002135       0x49 /usr/local/bin/../lib/gcc/arm-elf/4.1.0/../../../../arm-elf/lib/libg.a(strncat.o)
                                0x12a (size before relaxing)
 .debug_str     0x0000217e       0x49 /usr/local/bin/../lib/gcc/arm-elf/4.1.0/../../../../arm-elf/lib/libg.a(strncmp.o)
                                0x11f (size before relaxing)
 .debug_str     0x000021c7       0x49 /usr/local/bin/../lib/gcc/arm-elf/4.1.0/../../../../arm-elf/lib/libg.a(strncpy.o)
                                0x147 (size before relaxing)
 .debug_str     0x00002210       0x49 /usr/local/bin/../lib/gcc/arm-elf/4.1.0/../../../../arm-elf/lib/libg.a(strrchr.o)
                                0x11d (size before relaxing)
 .debug_str     0x00002259       0x58 /usr/local/bin/../lib/gcc/arm-elf/4.1.0/../../../../arm-elf/lib/libg.a(strstr.o)
                                0x12e (size before relaxing)
 .debug_str     0x000022b1       0x47 /usr/local/bin/../lib/gcc/arm-elf/4.1.0/../../../../arm-elf/lib/libg.a(strtok.o)
                                0x4bd (size before relaxing)
 .debug_str     0x000022f8       0x71 /usr/local/bin/../lib/gcc/arm-elf/4.1.0/../../../../arm-elf/lib/libg.a(strtok_r.o)
                                0x14f (size before relaxing)
 .debug_str     0x00002369       0x99 /usr/local/bin/../lib/gcc/arm-elf/4.1.0/../../../../arm-elf/lib/libg.a(toupper.o)
                                 0xaa (size before relaxing)
 .debug_str     0x00002402      0x179 /usr/local/bin/../lib/gcc/arm-elf/4.1.0/../../../../arm-elf/lib/libg.a(vfprintf.o)
                                0x6bb (size before relaxing)
 .debug_str     0x0000257b       0xa1 /usr/local/bin/../lib/gcc/arm-elf/4.1.0/../../../../arm-elf/lib/libg.a(wcrtomb.o)
                                0x4f0 (size before relaxing)
 .debug_str     0x0000261c       0x65 /usr/local/bin/../lib/gcc/arm-elf/4.1.0/../../../../arm-elf/lib/libg.a(wcsrtombs.o)
                                0x505 (size before relaxing)
 .debug_str     0x00002681       0x69 /usr/local/bin/../lib/gcc/arm-elf/4.1.0/../../../../arm-elf/lib/libg.a(wctomb_r.o)
                                0x4e5 (size before relaxing)
 .debug_str     0x000026ea       0x49 /usr/local/bin/../lib/gcc/arm-elf/4.1.0/../../../../arm-elf/lib/libg.a(wsetup.o)
                                0x4c9 (size before relaxing)
 .debug_str     0x00002733       0x47 /usr/local/bin/../lib/gcc/arm-elf/4.1.0/../../../../arm-elf/lib/libg.a(ctype_.o)
                                 0xbb (size before relaxing)
 .debug_str     0x0000277a      0x107 /usr/local/bin/../lib/gcc/arm-elf/4.1.0/../../../../arm-elf/lib/libg.a(dtoa.o)
                                0x5c0 (size before relaxing)
 .debug_str     0x00002881       0x46 /usr/local/bin/../lib/gcc/arm-elf/4.1.0/../../../../arm-elf/lib/libg.a(fflush.o)
                                0x4d9 (size before relaxing)
 .debug_str     0x000028c7      0x101 /usr/local/bin/../lib/gcc/arm-elf/4.1.0/../../../../arm-elf/lib/libg.a(findfp.o)
                                0x5b3 (size before relaxing)
 .debug_str     0x000029c8      0x160 /usr/local/bin/../lib/gcc/arm-elf/4.1.0/../../../../arm-elf/lib/libg.a(freer.o)
                                0x602 (size before relaxing)
 .debug_str     0x00002b28       0x61 /usr/local/bin/../lib/gcc/arm-elf/4.1.0/../../../../arm-elf/lib/libg.a(fvwrite.o)
                                0x524 (size before relaxing)
 .debug_str     0x00002b89       0x63 /usr/local/bin/../lib/gcc/arm-elf/4.1.0/../../../../arm-elf/lib/libg.a(fwalk.o)
                                0x4f4 (size before relaxing)
 .debug_str     0x00002bec      0x1d9 /usr/local/bin/../lib/gcc/arm-elf/4.1.0/../../../../arm-elf/lib/libg.a(locale.o)
                                0x65c (size before relaxing)
 .debug_str     0x00002dc5       0x56 /usr/local/bin/../lib/gcc/arm-elf/4.1.0/../../../../arm-elf/lib/libg.a(makebuf.o)
                                0x5b0 (size before relaxing)
 .debug_str     0x00002e1b       0xe9 /usr/local/bin/../lib/gcc/arm-elf/4.1.0/../../../../arm-elf/lib/libg.a(mallocr.o)
                                0x6b0 (size before relaxing)
 .debug_str     0x00002f04       0x55 /usr/local/bin/../lib/gcc/arm-elf/4.1.0/../../../../arm-elf/lib/libg.a(memchr.o)
                                0x13e (size before relaxing)
 .debug_str     0x00002f59       0x52 /usr/local/bin/../lib/gcc/arm-elf/4.1.0/../../../../arm-elf/lib/libg.a(memmove.o)
                                0x150 (size before relaxing)
 .debug_str     0x00002fab       0x72 /usr/local/bin/../lib/gcc/arm-elf/4.1.0/../../../../arm-elf/lib/libg.a(mlock.o)
                                0x4d6 (size before relaxing)
 .debug_str     0x0000301d       0xd8 /usr/local/bin/../lib/gcc/arm-elf/4.1.0/../../../../arm-elf/lib/libg.a(mprec.o)
                                0x5a8 (size before relaxing)
 .debug_str     0x000030f5       0x61 /usr/local/bin/../lib/gcc/arm-elf/4.1.0/../../../../arm-elf/lib/libg.a(reallocr.o)
                                0x582 (size before relaxing)
 .debug_str     0x00003156       0xa9 /usr/local/bin/../lib/gcc/arm-elf/4.1.0/../../../../arm-elf/lib/libg.a(s_isinf.o)
                                0x174 (size before relaxing)
 .debug_str     0x000031ff       0x3f /usr/local/bin/../lib/gcc/arm-elf/4.1.0/../../../../arm-elf/lib/libg.a(s_isnan.o)
                                0x174 (size before relaxing)
 .debug_str     0x0000323e       0x6e /usr/local/bin/../lib/gcc/arm-elf/4.1.0/../../../../arm-elf/lib/libg.a(stdio.o)
                                0x4fc (size before relaxing)
 .debug_str     0x000032ac      0x245 /usr/local/bin/../lib/gcc/arm-elf/4.1.0/../../../../arm-elf/lib/libg.a(syscalls.o)
                                0x7bd (size before relaxing)
 .debug_str     0x000034f1       0x19 /usr/local/bin/../lib/gcc/arm-elf/4.1.0/../../../../arm-elf/lib/libg.a(callocr.o)
                                0x501 (size before relaxing)
 .debug_str     0x0000350a       0x50 /usr/local/bin/../lib/gcc/arm-elf/4.1.0/../../../../arm-elf/lib/libg.a(fclose.o)
                                0x4d5 (size before relaxing)
 .debug_str     0x0000355a        0x8 /usr/local/bin/../lib/gcc/arm-elf/4.1.0/libgcc.a(_eq_df.o)
                                0x1b5 (size before relaxing)

.comment        0x00000000      0x60c
 .comment       0x00000000       0x12 main.o
 .comment       0x00000012       0x12 syscalls.o
 .comment       0x00000024       0x12 ./uart/uart.o
 .comment       0x00000036       0x12 ./mprintf/mprintf.o
 .comment       0x00000048       0x12 ./timer/timer.o
 .comment       0x0000005a       0x12 ./rtc/rtc.o
 .comment       0x0000006c       0x12 ./i2c/i2c.o
 .comment       0x0000007e       0x12 ./i2c/i2c_isr.o
 .comment       0x00000090       0x12 ./mac/emac.o
 .comment       0x000000a2       0x12 ./mac/emac_isr.o
 .comment       0x000000b4       0x12 ./httpd/httpd.o
 .comment       0x000000c6       0x12 ./httpd/httpd-cgi.o
 .comment       0x000000d8       0x12 ./httpd/httpd-fs.o
 .comment       0x000000ea       0x12 ./httpd/http-strings.o
 .comment       0x000000fc       0x12 ./sockets/cli_webSock.o
 .comment       0x0000010e       0x12 ./eth/eth.o
 .comment       0x00000120       0x12 ./lcd/lcd.o
 .comment       0x00000132       0x12 ./cli/cli.o
 .comment       0x00000144       0x12 ./cli/cli_func.o
 .comment       0x00000156       0x12 ./cli/debug.o
 .comment       0x00000168       0x12 ./telnetd/telnetd.o
 .comment       0x0000017a       0x12 ./memb/memb.o
 .comment       0x0000018c       0x12 ./telnetd/shell.o
 .comment       0x0000019e       0x12 ../uip/uip_arp.o
 .comment       0x000001b0       0x12 ../uip/psock.o
 .comment       0x000001c2       0x12 ../uip/timer.o
 .comment       0x000001d4       0x12 ../uip/uip.o
 .comment       0x000001e6       0x12 /usr/local/bin/../lib/gcc/arm-elf/4.1.0/libgcc.a(_addsub_df.o)
 .comment       0x000001f8       0x12 /usr/local/bin/../lib/gcc/arm-elf/4.1.0/libgcc.a(_mul_df.o)
 .comment       0x0000020a       0x12 /usr/local/bin/../lib/gcc/arm-elf/4.1.0/libgcc.a(_div_df.o)
 .comment       0x0000021c       0x12 /usr/local/bin/../lib/gcc/arm-elf/4.1.0/libgcc.a(_ne_df.o)
 .comment       0x0000022e       0x12 /usr/local/bin/../lib/gcc/arm-elf/4.1.0/libgcc.a(_gt_df.o)
 .comment       0x00000240       0x12 /usr/local/bin/../lib/gcc/arm-elf/4.1.0/libgcc.a(_ge_df.o)
 .comment       0x00000252       0x12 /usr/local/bin/../lib/gcc/arm-elf/4.1.0/libgcc.a(_lt_df.o)
 .comment       0x00000264       0x12 /usr/local/bin/../lib/gcc/arm-elf/4.1.0/libgcc.a(_si_to_df.o)
 .comment       0x00000276       0x12 /usr/local/bin/../lib/gcc/arm-elf/4.1.0/libgcc.a(_df_to_si.o)
 .comment       0x00000288       0x12 /usr/local/bin/../lib/gcc/arm-elf/4.1.0/libgcc.a(_thenan_df.o)
 .comment       0x0000029a       0x12 /usr/local/bin/../lib/gcc/arm-elf/4.1.0/libgcc.a(_pack_df.o)
 .comment       0x000002ac       0x12 /usr/local/bin/../lib/gcc/arm-elf/4.1.0/libgcc.a(_unpack_df.o)
 .comment       0x000002be       0x12 /usr/local/bin/../lib/gcc/arm-elf/4.1.0/libgcc.a(_fpcmp_parts_df.o)
 .comment       0x000002d0       0x12 /usr/local/bin/../lib/gcc/arm-elf/4.1.0/../../../../arm-elf/lib/libg.a(errno.o)
 .comment       0x000002e2       0x12 /usr/local/bin/../lib/gcc/arm-elf/4.1.0/../../../../arm-elf/lib/libg.a(impure.o)
 .comment       0x000002f4       0x12 /usr/local/bin/../lib/gcc/arm-elf/4.1.0/../../../../arm-elf/lib/libg.a(memcpy.o)
 .comment       0x00000306       0x12 /usr/local/bin/../lib/gcc/arm-elf/4.1.0/../../../../arm-elf/lib/libg.a(memset.o)
 .comment       0x00000318       0x12 /usr/local/bin/../lib/gcc/arm-elf/4.1.0/../../../../arm-elf/lib/libg.a(printf.o)
 .comment       0x0000032a       0x12 /usr/local/bin/../lib/gcc/arm-elf/4.1.0/../../../../arm-elf/lib/libg.a(puts.o)
 .comment       0x0000033c       0x12 /usr/local/bin/../lib/gcc/arm-elf/4.1.0/../../../../arm-elf/lib/libg.a(strcat.o)
 .comment       0x0000034e       0x12 /usr/local/bin/../lib/gcc/arm-elf/4.1.0/../../../../arm-elf/lib/libg.a(strchr.o)
 .comment       0x00000360       0x12 /usr/local/bin/../lib/gcc/arm-elf/4.1.0/../../../../arm-elf/lib/libg.a(strcmp.o)
 .comment       0x00000372       0x12 /usr/local/bin/../lib/gcc/arm-elf/4.1.0/../../../../arm-elf/lib/libg.a(strcpy.o)
 .comment       0x00000384       0x12 /usr/local/bin/../lib/gcc/arm-elf/4.1.0/../../../../arm-elf/lib/libg.a(strlen.o)
 .comment       0x00000396       0x12 /usr/local/bin/../lib/gcc/arm-elf/4.1.0/../../../../arm-elf/lib/libg.a(strncat.o)
 .comment       0x000003a8       0x12 /usr/local/bin/../lib/gcc/arm-elf/4.1.0/../../../../arm-elf/lib/libg.a(strncmp.o)
 .comment       0x000003ba       0x12 /usr/local/bin/../lib/gcc/arm-elf/4.1.0/../../../../arm-elf/lib/libg.a(strncpy.o)
 .comment       0x000003cc       0x12 /usr/local/bin/../lib/gcc/arm-elf/4.1.0/../../../../arm-elf/lib/libg.a(strrchr.o)
 .comment       0x000003de       0x12 /usr/local/bin/../lib/gcc/arm-elf/4.1.0/../../../../arm-elf/lib/libg.a(strstr.o)
 .comment       0x000003f0       0x12 /usr/local/bin/../lib/gcc/arm-elf/4.1.0/../../../../arm-elf/lib/libg.a(strtok.o)
 .comment       0x00000402       0x12 /usr/local/bin/../lib/gcc/arm-elf/4.1.0/../../../../arm-elf/lib/libg.a(strtok_r.o)
 .comment       0x00000414       0x12 /usr/local/bin/../lib/gcc/arm-elf/4.1.0/../../../../arm-elf/lib/libg.a(toupper.o)
 .comment       0x00000426       0x12 /usr/local/bin/../lib/gcc/arm-elf/4.1.0/../../../../arm-elf/lib/libg.a(vfprintf.o)
 .comment       0x00000438       0x12 /usr/local/bin/../lib/gcc/arm-elf/4.1.0/../../../../arm-elf/lib/libg.a(wcrtomb.o)
 .comment       0x0000044a       0x12 /usr/local/bin/../lib/gcc/arm-elf/4.1.0/../../../../arm-elf/lib/libg.a(wcsrtombs.o)
 .comment       0x0000045c       0x12 /usr/local/bin/../lib/gcc/arm-elf/4.1.0/../../../../arm-elf/lib/libg.a(wctomb_r.o)
 .comment       0x0000046e       0x12 /usr/local/bin/../lib/gcc/arm-elf/4.1.0/../../../../arm-elf/lib/libg.a(wsetup.o)
 .comment       0x00000480       0x12 /usr/local/bin/../lib/gcc/arm-elf/4.1.0/../../../../arm-elf/lib/libg.a(ctype_.o)
 .comment       0x00000492       0x12 /usr/local/bin/../lib/gcc/arm-elf/4.1.0/../../../../arm-elf/lib/libg.a(dtoa.o)
 .comment       0x000004a4       0x12 /usr/local/bin/../lib/gcc/arm-elf/4.1.0/../../../../arm-elf/lib/libg.a(fflush.o)
 .comment       0x000004b6       0x12 /usr/local/bin/../lib/gcc/arm-elf/4.1.0/../../../../arm-elf/lib/libg.a(findfp.o)
 .comment       0x000004c8       0x12 /usr/local/bin/../lib/gcc/arm-elf/4.1.0/../../../../arm-elf/lib/libg.a(freer.o)
 .comment       0x000004da       0x12 /usr/local/bin/../lib/gcc/arm-elf/4.1.0/../../../../arm-elf/lib/libg.a(fvwrite.o)
 .comment       0x000004ec       0x12 /usr/local/bin/../lib/gcc/arm-elf/4.1.0/../../../../arm-elf/lib/libg.a(fwalk.o)
 .comment       0x000004fe       0x12 /usr/local/bin/../lib/gcc/arm-elf/4.1.0/../../../../arm-elf/lib/libg.a(locale.o)
 .comment       0x00000510       0x12 /usr/local/bin/../lib/gcc/arm-elf/4.1.0/../../../../arm-elf/lib/libg.a(makebuf.o)
 .comment       0x00000522       0x12 /usr/local/bin/../lib/gcc/arm-elf/4.1.0/../../../../arm-elf/lib/libg.a(mallocr.o)
 .comment       0x00000534       0x12 /usr/local/bin/../lib/gcc/arm-elf/4.1.0/../../../../arm-elf/lib/libg.a(memchr.o)
 .comment       0x00000546       0x12 /usr/local/bin/../lib/gcc/arm-elf/4.1.0/../../../../arm-elf/lib/libg.a(memmove.o)
 .comment       0x00000558       0x12 /usr/local/bin/../lib/gcc/arm-elf/4.1.0/../../../../arm-elf/lib/libg.a(mlock.o)
 .comment       0x0000056a       0x12 /usr/local/bin/../lib/gcc/arm-elf/4.1.0/../../../../arm-elf/lib/libg.a(mprec.o)
 .comment       0x0000057c       0x12 /usr/local/bin/../lib/gcc/arm-elf/4.1.0/../../../../arm-elf/lib/libg.a(reallocr.o)
 .comment       0x0000058e       0x12 /usr/local/bin/../lib/gcc/arm-elf/4.1.0/../../../../arm-elf/lib/libg.a(s_isinf.o)
 .comment       0x000005a0       0x12 /usr/local/bin/../lib/gcc/arm-elf/4.1.0/../../../../arm-elf/lib/libg.a(s_isnan.o)
 .comment       0x000005b2       0x12 /usr/local/bin/../lib/gcc/arm-elf/4.1.0/../../../../arm-elf/lib/libg.a(stdio.o)
 .comment       0x000005c4       0x12 /usr/local/bin/../lib/gcc/arm-elf/4.1.0/../../../../arm-elf/lib/libg.a(syscalls.o)
 .comment       0x000005d6       0x12 /usr/local/bin/../lib/gcc/arm-elf/4.1.0/../../../../arm-elf/lib/libg.a(callocr.o)
 .comment       0x000005e8       0x12 /usr/local/bin/../lib/gcc/arm-elf/4.1.0/../../../../arm-elf/lib/libg.a(fclose.o)
 .comment       0x000005fa       0x12 /usr/local/bin/../lib/gcc/arm-elf/4.1.0/libgcc.a(_eq_df.o)

.debug_ranges   0x00000000      0x778
 .debug_ranges  0x00000000      0x160 ./httpd/httpd.o
 .debug_ranges  0x00000160       0x18 ./cli/cli.o
 .debug_ranges  0x00000178       0x30 ../uip/psock.o
 .debug_ranges  0x000001a8       0x18 /usr/local/bin/../lib/gcc/arm-elf/4.1.0/libgcc.a(_addsub_df.o)
 .debug_ranges  0x000001c0       0x68 /usr/local/bin/../lib/gcc/arm-elf/4.1.0/libgcc.a(_mul_df.o)
 .debug_ranges  0x00000228       0x58 /usr/local/bin/../lib/gcc/arm-elf/4.1.0/libgcc.a(_div_df.o)
 .debug_ranges  0x00000280       0x38 /usr/local/bin/../lib/gcc/arm-elf/4.1.0/libgcc.a(_pack_df.o)
 .debug_ranges  0x000002b8      0x140 /usr/local/bin/../lib/gcc/arm-elf/4.1.0/../../../../arm-elf/lib/libg.a(vfprintf.o)
 .debug_ranges  0x000003f8       0x28 /usr/local/bin/../lib/gcc/arm-elf/4.1.0/../../../../arm-elf/lib/libg.a(wcsrtombs.o)
 .debug_ranges  0x00000420       0x48 /usr/local/bin/../lib/gcc/arm-elf/4.1.0/../../../../arm-elf/lib/libg.a(wctomb_r.o)
 .debug_ranges  0x00000468       0x18 /usr/local/bin/../lib/gcc/arm-elf/4.1.0/../../../../arm-elf/lib/libg.a(fvwrite.o)
 .debug_ranges  0x00000480       0x40 /usr/local/bin/../lib/gcc/arm-elf/4.1.0/../../../../arm-elf/lib/libg.a(fwalk.o)
 .debug_ranges  0x000004c0       0x50 /usr/local/bin/../lib/gcc/arm-elf/4.1.0/../../../../arm-elf/lib/libg.a(mallocr.o)
 .debug_ranges  0x00000510      0x118 /usr/local/bin/../lib/gcc/arm-elf/4.1.0/../../../../arm-elf/lib/libg.a(reallocr.o)
 .debug_ranges  0x00000628      0x118 /usr/local/bin/../lib/gcc/arm-elf/4.1.0/../../../../arm-elf/lib/libg.a(syscalls.o)
 .debug_ranges  0x00000740       0x38 /usr/local/bin/../lib/gcc/arm-elf/4.1.0/../../../../arm-elf/lib/libg.a(callocr.o)
